 SibShiftMex

 Timestamp is 4957af46 (Sun Dec 28 11:54:30 2008)

 Preferred load address is 10000000

 Start         Length     Name                   Class
 0001:00000000 00010000H .textbss                DATA
 0002:00000000 0001cfabH .text                   CODE
 0002:0001cfb0 00002105H .text$x                 CODE
 0002:0001f0c0 00001023H .text$yc                CODE
 0002:000200f0 000010b5H .text$yd                CODE
 0003:00000000 00000104H .CRT$XCA                DATA
 0003:00000104 00000104H .CRT$XCU                DATA
 0003:00000208 00000104H .CRT$XCZ                DATA
 0003:0000030c 00000104H .CRT$XIA                DATA
 0003:00000410 00000104H .CRT$XIAA               DATA
 0003:00000514 00000104H .CRT$XIC                DATA
 0003:00000618 00000104H .CRT$XIZ                DATA
 0003:00000720 00003941H .rdata                  DATA
 0003:00004064 00000163H .rdata$debug            DATA
 0003:000041c8 000003cbH .rdata$r                DATA
 0003:00004594 00000104H .rtc$IAA                DATA
 0003:00004698 00000104H .rtc$IMZ                DATA
 0003:0000479c 00000104H .rtc$IZZ                DATA
 0003:000048a0 00000104H .rtc$TAA                DATA
 0003:000049a4 00000104H .rtc$TMZ                DATA
 0003:00004aa8 00000104H .rtc$TZZ                DATA
 0003:00004bb0 00001a03H .xdata$x                DATA
 0003:000065c0 00000161H .edata                  DATA
 0004:00000000 000003a6H .data                   DATA
 0004:000003a8 01a642a4H .bss                    DATA
 0005:00000000 000000a0H .idata$2                DATA
 0005:000000a0 00000014H .idata$3                DATA
 0005:000000b4 00000470H .idata$4                DATA
 0005:00000524 00000470H .idata$5                DATA
 0005:00000994 000014c8H .idata$6                DATA
 0006:00000000 00000169H .rsrc$01                DATA
 0006:00000170 000002e9H .rsrc$02                DATA

  Address         Publics by Value              Rva+Base       Lib:Object

 0000:00000000       ___safe_se_handler_count   00000000     <absolute>
 0000:00000000       ___safe_se_handler_table   00000000     <absolute>
 0000:00000000       __except_list              00000000     <absolute>
 0000:00009876       __ldused                   00009876     <absolute>
 0000:00009876       __fltused                  00009876     <absolute>
 0000:00000000       ___ImageBase               10000000     <linker-defined>
 0001:00000000       __enc$textbss$begin        10001000     <linker-defined>
 0001:00010000       __enc$textbss$end          10011000     <linker-defined>
 0002:00001d20       _mexFunction               10012d20 f   mexLibrary.obj
 0002:000023b0       ?size@?$vector@UAudioDeviceInfo@@V?$allocator@UAudioDeviceInfo@@@std@@@std@@QBEIXZ 100133b0 f i mexLibrary.obj
 0002:00002430       ??A?$vector@UAudioDeviceInfo@@V?$allocator@UAudioDeviceInfo@@@std@@@std@@QAEAAUAudioDeviceInfo@@I@Z 10013430 f i mexLibrary.obj
 0002:000025b0       ??0audioIO@@QAE@XZ         100135b0 f   audioIO:audioIO.obj
 0002:000028e0       ??1audioIO@@QAE@XZ         100138e0 f   audioIO:audioIO.obj
 0002:00002990       ?setcallbackparams@audioIO@@QAEHHPAX0@Z 10013990 f   audioIO:audioIO.obj
 0002:000029c0       ?setdevparams@audioIO@@QAEHPAUDeviceParams@@H@Z 100139c0 f   audioIO:audioIO.obj
 0002:00002a80       ?startdev@audioIO@@QAEHXZ  10013a80 f   audioIO:audioIO.obj
 0002:00002c20       ?stopdev@audioIO@@QAEHH@Z  10013c20 f   audioIO:audioIO.obj
 0002:00002ed0       ??0RtAudioDeviceInfo@@QAE@XZ 10013ed0 f i audioIO:audioIO.obj
 0002:00002fa0       ?getDeviceCount@RtAudio@@QAEHXZ 10013fa0 f i audioIO:audioIO.obj
 0002:00002fc0       ?getDeviceInfo@RtAudio@@QAE?AURtAudioDeviceInfo@@H@Z 10013fc0 f i audioIO:audioIO.obj
 0002:00003010       ??1RtAudioDeviceInfo@@QAE@XZ 10014010 f i audioIO:audioIO.obj
 0002:00003080       ??4RtAudioDeviceInfo@@QAEAAU0@ABU0@@Z 10014080 f i audioIO:audioIO.obj
 0002:00003120       ??_GRtAudio@@QAEPAXI@Z     10014120 f i audioIO:audioIO.obj
 0002:00003160       ?setStreamCallback@RtAudio@@QAEXP6AHPADHPAX@Z1@Z 10014160 f i audioIO:audioIO.obj
 0002:00003190       ?startStream@RtAudio@@QAEXXZ 10014190 f i audioIO:audioIO.obj
 0002:000031c0       ?closeStream@RtAudio@@QAEXXZ 100141c0 f i audioIO:audioIO.obj
 0002:000031f0       ?stopStream@RtAudio@@QAEXXZ 100141f0 f i audioIO:audioIO.obj
 0002:00003220       ??0_Has_debug_it@?$basic_string@DU?$char_traits@D@std@@V?$allocator@D@2@@std@@QAE@_N@Z 10014220 f i audioIO:audioIO.obj
 0002:00003240       ??0?$vector@HV?$allocator@H@std@@@std@@QAE@XZ 10014240 f i audioIO:audioIO.obj
 0002:000032c0       ??1?$vector@HV?$allocator@H@std@@@std@@QAE@XZ 100142c0 f i audioIO:audioIO.obj
 0002:00003330       ??4?$vector@HV?$allocator@H@std@@@std@@QAEAAV01@ABV01@@Z 10014330 f i audioIO:audioIO.obj
 0002:00003520       ??0?$vector@UAudioDeviceInfo@@V?$allocator@UAudioDeviceInfo@@@std@@@std@@QAE@XZ 10014520 f i audioIO:audioIO.obj
 0002:000035a0       ??1?$vector@UAudioDeviceInfo@@V?$allocator@UAudioDeviceInfo@@@std@@@std@@QAE@XZ 100145a0 f i audioIO:audioIO.obj
 0002:00003610       ?resize@?$vector@UAudioDeviceInfo@@V?$allocator@UAudioDeviceInfo@@@std@@@std@@QAEXI@Z 10014610 f i audioIO:audioIO.obj
 0002:00003650       ??0AudioDeviceInfo@@QAE@XZ 10014650 f i audioIO:audioIO.obj
 0002:00003710       ??1?$_Vector_val@HV?$allocator@H@std@@@std@@QAE@XZ 10014710 f i audioIO:audioIO.obj
 0002:00003730       ??1?$_Vector_val@UAudioDeviceInfo@@V?$allocator@UAudioDeviceInfo@@@std@@@std@@QAE@XZ 10014730 f i audioIO:audioIO.obj
 0002:00003750       ?capacity@?$vector@HV?$allocator@H@std@@@std@@QBEIXZ 10014750 f i audioIO:audioIO.obj
 0002:000037a0       ?size@?$vector@HV?$allocator@H@std@@@std@@QBEIXZ 100147a0 f i audioIO:audioIO.obj
 0002:000037f0       ?clear@?$vector@HV?$allocator@H@std@@@std@@QAEXXZ 100147f0 f i audioIO:audioIO.obj
 0002:000038a0       ?_Buy@?$vector@HV?$allocator@H@std@@@std@@IAE_NI@Z 100148a0 f i audioIO:audioIO.obj
 0002:00003940       ?_Destroy@?$vector@HV?$allocator@H@std@@@std@@IAEXPAH0@Z 10014940 f i audioIO:audioIO.obj
 0002:00003970       ?_Tidy@?$vector@HV?$allocator@H@std@@@std@@IAEXXZ 10014970 f i audioIO:audioIO.obj
 0002:00003a00       ??0?$_Vector_val@HV?$allocator@H@std@@@std@@IAE@V?$allocator@H@1@@Z 10014a00 f i audioIO:audioIO.obj
 0002:00003a40       ??0?$allocator@H@std@@QAE@XZ 10014a40 f i audioIO:audioIO.obj
 0002:00003a60       ?deallocate@?$allocator@H@std@@QAEXPAHI@Z 10014a60 f i audioIO:audioIO.obj
 0002:00003a80       ?resize@?$vector@UAudioDeviceInfo@@V?$allocator@UAudioDeviceInfo@@@std@@@std@@QAEXIUAudioDeviceInfo@@@Z 10014a80 f i audioIO:audioIO.obj
 0002:00003be0       ??1AudioDeviceInfo@@QAE@XZ 10014be0 f i audioIO:audioIO.obj
 0002:00003c50       ?_Buy@?$vector@UAudioDeviceInfo@@V?$allocator@UAudioDeviceInfo@@@std@@@std@@IAE_NI@Z 10014c50 f i audioIO:audioIO.obj
 0002:00003cf0       ?_Tidy@?$vector@UAudioDeviceInfo@@V?$allocator@UAudioDeviceInfo@@@std@@@std@@IAEXXZ 10014cf0 f i audioIO:audioIO.obj
 0002:00003d90       ??0?$_Vector_val@UAudioDeviceInfo@@V?$allocator@UAudioDeviceInfo@@@std@@@std@@IAE@V?$allocator@UAudioDeviceInfo@@@1@@Z 10014d90 f i audioIO:audioIO.obj
 0002:00003dd0       ??0?$allocator@UAudioDeviceInfo@@@std@@QAE@XZ 10014dd0 f i audioIO:audioIO.obj
 0002:00003df0       ??1?$_Vector_iterator@HV?$allocator@H@std@@@std@@QAE@XZ 10014df0 f i audioIO:audioIO.obj
 0002:00003e10       ??1?$_Vector_iterator@UAudioDeviceInfo@@V?$allocator@UAudioDeviceInfo@@@std@@@std@@QAE@XZ 10014e10 f i audioIO:audioIO.obj
 0002:00003e30       ??1?$_Vector_const_iterator@HV?$allocator@H@std@@@std@@QAE@XZ 10014e30 f i audioIO:audioIO.obj
 0002:00003e50       ??1?$_Vector_const_iterator@UAudioDeviceInfo@@V?$allocator@UAudioDeviceInfo@@@std@@@std@@QAE@XZ 10014e50 f i audioIO:audioIO.obj
 0002:00003e70       ??1?$_Ranit@HHPBHABH@std@@QAE@XZ 10014e70 f i audioIO:audioIO.obj
 0002:00003e90       ??1_Iterator_base@std@@QAE@XZ 10014e90 f i audioIO:audioIO.obj
 0002:00003f10       ?_Orphan_me@_Iterator_base@std@@QAEXXZ 10014f10 f i audioIO:audioIO.obj
 0002:00003fb0       ??1?$_Ranit@UAudioDeviceInfo@@HPBU1@ABU1@@std@@QAE@XZ 10014fb0 f i audioIO:audioIO.obj
 0002:00003fd0       ?begin@?$vector@HV?$allocator@H@std@@@std@@QAE?AV?$_Vector_iterator@HV?$allocator@H@std@@@2@XZ 10014fd0 f i audioIO:audioIO.obj
 0002:00004020       ?end@?$vector@HV?$allocator@H@std@@@std@@QAE?AV?$_Vector_iterator@HV?$allocator@H@std@@@2@XZ 10015020 f i audioIO:audioIO.obj
 0002:00004070       ?max_size@?$vector@HV?$allocator@H@std@@@std@@QBEIXZ 10015070 f i audioIO:audioIO.obj
 0002:00004090       ?erase@?$vector@HV?$allocator@H@std@@@std@@QAE?AV?$_Vector_iterator@HV?$allocator@H@std@@@2@V32@0@Z 10015090 f i audioIO:audioIO.obj
 0002:00004200       ?_Xlen@?$vector@HV?$allocator@H@std@@@std@@KAXXZ 10015200 f i audioIO:audioIO.obj
 0002:00004290       ??0length_error@std@@QAE@ABV?$basic_string@DU?$char_traits@D@std@@V?$allocator@D@2@@1@@Z 10015290 f i audioIO:audioIO.obj
 0002:000042c0       ??0logic_error@std@@QAE@ABV?$basic_string@DU?$char_traits@D@std@@V?$allocator@D@2@@1@@Z 100152c0 f i audioIO:audioIO.obj
 0002:00004350       ?what@logic_error@std@@UBEPBDXZ 10015350 f i audioIO:audioIO.obj
 0002:00004370       ??_Elogic_error@std@@UAEPAXI@Z 10015370 f i audioIO:audioIO.obj
 0002:00004370       ??_Glogic_error@std@@UAEPAXI@Z 10015370 f i audioIO:audioIO.obj
 0002:000043b0       ??1logic_error@std@@UAE@XZ 100153b0 f i audioIO:audioIO.obj
 0002:000043f0       ??1length_error@std@@UAE@XZ 100153f0 f i audioIO:audioIO.obj
 0002:00004420       ??_Elength_error@std@@UAEPAXI@Z 10015420 f i audioIO:audioIO.obj
 0002:00004420       ??_Glength_error@std@@UAEPAXI@Z 10015420 f i audioIO:audioIO.obj
 0002:00004460       ??0logic_error@std@@QAE@ABV01@@Z 10015460 f i audioIO:audioIO.obj
 0002:000044f0       ??0?$allocator@H@std@@QAE@ABV01@@Z 100154f0 f i audioIO:audioIO.obj
 0002:00004510       ?allocate@?$allocator@H@std@@QAEPAHI@Z 10015510 f i audioIO:audioIO.obj
 0002:00004540       ?begin@?$vector@UAudioDeviceInfo@@V?$allocator@UAudioDeviceInfo@@@std@@@std@@QAE?AV?$_Vector_iterator@UAudioDeviceInfo@@V?$allocator@UAudioDeviceInfo@@@std@@@2@XZ 10015540 f i audioIO:audioIO.obj
 0002:00004590       ?end@?$vector@UAudioDeviceInfo@@V?$allocator@UAudioDeviceInfo@@@std@@@std@@QAE?AV?$_Vector_iterator@UAudioDeviceInfo@@V?$allocator@UAudioDeviceInfo@@@std@@@2@XZ 10015590 f i audioIO:audioIO.obj
 0002:000045e0       ?max_size@?$vector@UAudioDeviceInfo@@V?$allocator@UAudioDeviceInfo@@@std@@@std@@QBEIXZ 100155e0 f i audioIO:audioIO.obj
 0002:00004600       ?erase@?$vector@UAudioDeviceInfo@@V?$allocator@UAudioDeviceInfo@@@std@@@std@@QAE?AV?$_Vector_iterator@UAudioDeviceInfo@@V?$allocator@UAudioDeviceInfo@@@std@@@2@V32@0@Z 10015600 f i audioIO:audioIO.obj
 0002:00004770       ?_Destroy@?$vector@UAudioDeviceInfo@@V?$allocator@UAudioDeviceInfo@@@std@@@std@@IAEXPAUAudioDeviceInfo@@0@Z 10015770 f i audioIO:audioIO.obj
 0002:000047a0       ?_Insert_n@?$vector@UAudioDeviceInfo@@V?$allocator@UAudioDeviceInfo@@@std@@@std@@IAEXV?$_Vector_iterator@UAudioDeviceInfo@@V?$allocator@UAudioDeviceInfo@@@std@@@2@IABUAudioDeviceInfo@@@Z 100157a0 f i audioIO:audioIO.obj
 0002:00004c90       ?_Xlen@?$vector@UAudioDeviceInfo@@V?$allocator@UAudioDeviceInfo@@@std@@@std@@KAXXZ 10015c90 f i audioIO:audioIO.obj
 0002:00004d20       ??0?$allocator@UAudioDeviceInfo@@@std@@QAE@ABV01@@Z 10015d20 f i audioIO:audioIO.obj
 0002:00004d40       ?deallocate@?$allocator@UAudioDeviceInfo@@@std@@QAEXPAUAudioDeviceInfo@@I@Z 10015d40 f i audioIO:audioIO.obj
 0002:00004d60       ?allocate@?$allocator@UAudioDeviceInfo@@@std@@QAEPAUAudioDeviceInfo@@I@Z 10015d60 f i audioIO:audioIO.obj
 0002:00004d90       ??H?$_Vector_iterator@UAudioDeviceInfo@@V?$allocator@UAudioDeviceInfo@@@std@@@std@@QBE?AV01@H@Z 10015d90 f i audioIO:audioIO.obj
 0002:00004e30       ??0length_error@std@@QAE@ABV01@@Z 10015e30 f i audioIO:audioIO.obj
 0002:00004e60       ??0AudioDeviceInfo@@QAE@ABU0@@Z 10015e60 f i audioIO:audioIO.obj
 0002:00004f30       ??0?$_Vector_iterator@UAudioDeviceInfo@@V?$allocator@UAudioDeviceInfo@@@std@@@std@@QAE@ABV01@@Z 10015f30 f i audioIO:audioIO.obj
 0002:00004f60       ??0?$_Vector_const_iterator@UAudioDeviceInfo@@V?$allocator@UAudioDeviceInfo@@@std@@@std@@QAE@ABV01@@Z 10015f60 f i audioIO:audioIO.obj
 0002:00004fa0       ??0?$_Ranit@UAudioDeviceInfo@@HPBU1@ABU1@@std@@QAE@ABU01@@Z 10015fa0 f i audioIO:audioIO.obj
 0002:00004fd0       ??0_Iterator_base@std@@QAE@ABV01@@Z 10015fd0 f i audioIO:audioIO.obj
 0002:00005010       ??4_Iterator_base@std@@QAEAAV01@ABV01@@Z 10016010 f i audioIO:audioIO.obj
 0002:000050b0       ?_Adopt@_Iterator_base@std@@QAEXPBV_Container_base@2@@Z 100160b0 f i audioIO:audioIO.obj
 0002:00005170       ??0?$vector@HV?$allocator@H@std@@@std@@QAE@ABV01@@Z 10016170 f i audioIO:audioIO.obj
 0002:000052c0       ?_Orphan_range@?$vector@HV?$allocator@H@std@@@std@@IBEXPAH0@Z 100162c0 f i audioIO:audioIO.obj
 0002:00005350       ?max_size@?$allocator@H@std@@QBEIXZ 10016350 f i audioIO:audioIO.obj
 0002:00005390       ?capacity@?$vector@UAudioDeviceInfo@@V?$allocator@UAudioDeviceInfo@@@std@@@std@@QBEIXZ 10016390 f i audioIO:audioIO.obj
 0002:000053e0       ?_Ufill@?$vector@UAudioDeviceInfo@@V?$allocator@UAudioDeviceInfo@@@std@@@std@@IAEPAUAudioDeviceInfo@@PAU3@IABU3@@Z 100163e0 f i audioIO:audioIO.obj
 0002:00005420       ?_Orphan_range@?$vector@UAudioDeviceInfo@@V?$allocator@UAudioDeviceInfo@@@std@@@std@@IBEXPAUAudioDeviceInfo@@0@Z 10016420 f i audioIO:audioIO.obj
 0002:000054b0       ?max_size@?$allocator@UAudioDeviceInfo@@@std@@QBEIXZ 100164b0 f i audioIO:audioIO.obj
 0002:000054f0       ??0?$_Vector_iterator@HV?$allocator@H@std@@@std@@QAE@PAHPBV_Container_base@1@@Z 100164f0 f i audioIO:audioIO.obj
 0002:00005520       ??9?$_Vector_const_iterator@HV?$allocator@H@std@@@std@@QBE_NABV01@@Z 10016520 f i audioIO:audioIO.obj
 0002:00005550       ??M?$_Vector_const_iterator@HV?$allocator@H@std@@@std@@QBE_NABV01@@Z 10016550 f i audioIO:audioIO.obj
 0002:00005590       ??0?$_Vector_iterator@UAudioDeviceInfo@@V?$allocator@UAudioDeviceInfo@@@std@@@std@@QAE@PAUAudioDeviceInfo@@PBV_Container_base@1@@Z 10016590 f i audioIO:audioIO.obj
 0002:000055c0       ??Y?$_Vector_iterator@UAudioDeviceInfo@@V?$allocator@UAudioDeviceInfo@@@std@@@std@@QAEAAV01@H@Z 100165c0 f i audioIO:audioIO.obj
 0002:000055f0       ??9?$_Vector_const_iterator@UAudioDeviceInfo@@V?$allocator@UAudioDeviceInfo@@@std@@@std@@QBE_NABV01@@Z 100165f0 f i audioIO:audioIO.obj
 0002:00005620       ??M?$_Vector_const_iterator@UAudioDeviceInfo@@V?$allocator@UAudioDeviceInfo@@@std@@@std@@QBE_NABV01@@Z 10016620 f i audioIO:audioIO.obj
 0002:00005660       ?begin@?$vector@HV?$allocator@H@std@@@std@@QBE?AV?$_Vector_const_iterator@HV?$allocator@H@std@@@2@XZ 10016660 f i audioIO:audioIO.obj
 0002:000056b0       ?end@?$vector@HV?$allocator@H@std@@@std@@QBE?AV?$_Vector_const_iterator@HV?$allocator@H@std@@@2@XZ 100166b0 f i audioIO:audioIO.obj
 0002:00005700       ??0?$_Vector_const_iterator@HV?$allocator@H@std@@@std@@QAE@PAHPBV_Container_base@1@@Z 10016700 f i audioIO:audioIO.obj
 0002:000057f0       ??8?$_Vector_const_iterator@HV?$allocator@H@std@@@std@@QBE_NABV01@@Z 100167f0 f i audioIO:audioIO.obj
 0002:00005830       ?_Compat@?$_Vector_const_iterator@HV?$allocator@H@std@@@std@@QBEXABV12@@Z 10016830 f i audioIO:audioIO.obj
 0002:000058d0       ??0?$_Vector_const_iterator@UAudioDeviceInfo@@V?$allocator@UAudioDeviceInfo@@@std@@@std@@QAE@PAUAudioDeviceInfo@@PBV_Container_base@1@@Z 100168d0 f i audioIO:audioIO.obj
 0002:000059c0       ??Y?$_Vector_const_iterator@UAudioDeviceInfo@@V?$allocator@UAudioDeviceInfo@@@std@@@std@@QAEAAV01@H@Z 100169c0 f i audioIO:audioIO.obj
 0002:00005ae0       ??8?$_Vector_const_iterator@UAudioDeviceInfo@@V?$allocator@UAudioDeviceInfo@@@std@@@std@@QBE_NABV01@@Z 10016ae0 f i audioIO:audioIO.obj
 0002:00005b20       ?_Compat@?$_Vector_const_iterator@UAudioDeviceInfo@@V?$allocator@UAudioDeviceInfo@@@std@@@std@@QBEXABV12@@Z 10016b20 f i audioIO:audioIO.obj
 0002:00005bc0       ??0?$_Ranit@HHPBHABH@std@@QAE@XZ 10016bc0 f i audioIO:audioIO.obj
 0002:00005be0       ??0_Iterator_base@std@@QAE@XZ 10016be0 f i audioIO:audioIO.obj
 0002:00005c10       ??0?$_Ranit@UAudioDeviceInfo@@HPBU1@ABU1@@std@@QAE@XZ 10016c10 f i audioIO:audioIO.obj
 0002:00005c30       ??$unchecked_copy@PAHPAH@stdext@@YAPAHPAH00@Z 10016c30 f i audioIO:audioIO.obj
 0002:00005cb0       ??$_Ucopy@PAH@?$vector@HV?$allocator@H@std@@@std@@IAEPAHPAH00@Z 10016cb0 f i audioIO:audioIO.obj
 0002:00005cf0       ??$_Destroy_range@HV?$allocator@H@std@@@std@@YAXPAH0AAV?$allocator@H@0@@Z 10016cf0 f i audioIO:audioIO.obj
 0002:00005d30       ??$_Allocate@H@std@@YAPAHIPAH@Z 10016d30 f i audioIO:audioIO.obj
 0002:00005d90       ??0bad_alloc@std@@QAE@PBD@Z 10016d90 f i audioIO:audioIO.obj
 0002:00005dc0       ??1bad_alloc@std@@UAE@XZ   10016dc0 f i audioIO:audioIO.obj
 0002:00005df0       ??_Ebad_alloc@std@@UAEPAXI@Z 10016df0 f i audioIO:audioIO.obj
 0002:00005df0       ??_Gbad_alloc@std@@UAEPAXI@Z 10016df0 f i audioIO:audioIO.obj
 0002:00005e30       ??0bad_alloc@std@@QAE@ABV01@@Z 10016e30 f i audioIO:audioIO.obj
 0002:00005e60       ??$unchecked_copy@PAUAudioDeviceInfo@@PAU1@@stdext@@YAPAUAudioDeviceInfo@@PAU1@00@Z 10016e60 f i audioIO:audioIO.obj
 0002:00005ee0       ??$_Destroy_range@UAudioDeviceInfo@@V?$allocator@UAudioDeviceInfo@@@std@@@std@@YAXPAUAudioDeviceInfo@@0AAV?$allocator@UAudioDeviceInfo@@@0@@Z 10016ee0 f i audioIO:audioIO.obj
 0002:00005f20       ??$_Umove@PAUAudioDeviceInfo@@@?$vector@UAudioDeviceInfo@@V?$allocator@UAudioDeviceInfo@@@std@@@std@@IAEPAUAudioDeviceInfo@@PAU2@00@Z 10016f20 f i audioIO:audioIO.obj
 0002:00005f60       ??$fill@PAUAudioDeviceInfo@@U1@@std@@YAXPAUAudioDeviceInfo@@0ABU1@@Z 10016f60 f i audioIO:audioIO.obj
 0002:00005fa0       ??$_Unchecked_move_backward@PAUAudioDeviceInfo@@PAU1@@stdext@@YAPAUAudioDeviceInfo@@PAU1@00@Z 10016fa0 f i audioIO:audioIO.obj
 0002:00006020       ??$_Allocate@UAudioDeviceInfo@@@std@@YAPAUAudioDeviceInfo@@IPAU1@@Z 10017020 f i audioIO:audioIO.obj
 0002:00006080       ??$_Ucopy@V?$_Vector_const_iterator@HV?$allocator@H@std@@@std@@@?$vector@HV?$allocator@H@std@@@std@@IAEPAHV?$_Vector_const_iterator@HV?$allocator@H@std@@@1@0PAH@Z 10017080 f i audioIO:audioIO.obj
 0002:00006160       ??$unchecked_uninitialized_fill_n@PAUAudioDeviceInfo@@IU1@V?$allocator@UAudioDeviceInfo@@@std@@@stdext@@YAXPAUAudioDeviceInfo@@IABU1@AAV?$allocator@UAudioDeviceInfo@@@std@@@Z 10017160 f i audioIO:audioIO.obj
 0002:000061b0       ??0?$_Vector_const_iterator@HV?$allocator@H@std@@@std@@QAE@ABV01@@Z 100171b0 f i audioIO:audioIO.obj
 0002:000061f0       ??0?$_Ranit@HHPBHABH@std@@QAE@ABU01@@Z 100171f0 f i audioIO:audioIO.obj
 0002:00006220       ??$_Checked_base@PAH@std@@YAPAHAAPAH@Z 10017220 f i audioIO:audioIO.obj
 0002:00006240       ??$_Iter_random@PAHPAH@std@@YA?AUrandom_access_iterator_tag@0@ABQAH0@Z 10017240 f i audioIO:audioIO.obj
 0002:00006250       ??$_Ptr_cat@PAHPAH@std@@YA?AU_Scalar_ptr_iterator_tag@0@AAPAH0@Z 10017250 f i audioIO:audioIO.obj
 0002:00006260       ??$_Copy_opt@PAHPAHUrandom_access_iterator_tag@std@@@std@@YAPAHPAH00Urandom_access_iterator_tag@0@U_Scalar_ptr_iterator_tag@0@U_Range_checked_iterator_tag@0@@Z 10017260 f i audioIO:audioIO.obj
 0002:00006310       ??$unchecked_uninitialized_copy@PAHPAHV?$allocator@H@std@@@stdext@@YAPAHPAH00AAV?$allocator@H@std@@@Z 10017310 f i audioIO:audioIO.obj
 0002:00006380       ??$_Destroy_range@HV?$allocator@H@std@@@std@@YAXPAH0AAV?$allocator@H@0@U_Scalar_ptr_iterator_tag@0@@Z 10017380 f i audioIO:audioIO.obj
 0002:00006390       ??$_Checked_base@PAUAudioDeviceInfo@@@std@@YAPAUAudioDeviceInfo@@AAPAU1@@Z 10017390 f i audioIO:audioIO.obj
 0002:000063b0       ??$_Iter_random@PAUAudioDeviceInfo@@PAU1@@std@@YA?AUrandom_access_iterator_tag@0@ABQAUAudioDeviceInfo@@0@Z 100173b0 f i audioIO:audioIO.obj
 0002:000063c0       ??$_Ptr_cat@PAUAudioDeviceInfo@@PAU1@@std@@YA?AU_Nonscalar_ptr_iterator_tag@0@AAPAUAudioDeviceInfo@@0@Z 100173c0 f i audioIO:audioIO.obj
 0002:000063d0       ??$_Copy_opt@PAUAudioDeviceInfo@@PAU1@@std@@YAPAUAudioDeviceInfo@@PAU1@00Urandom_access_iterator_tag@0@U_Nonscalar_ptr_iterator_tag@0@U_Range_checked_iterator_tag@0@@Z 100173d0 f i audioIO:audioIO.obj
 0002:00006440       ??$_Destroy_range@UAudioDeviceInfo@@V?$allocator@UAudioDeviceInfo@@@std@@@std@@YAXPAUAudioDeviceInfo@@0AAV?$allocator@UAudioDeviceInfo@@@0@U_Nonscalar_ptr_iterator_tag@0@@Z 10017440 f i audioIO:audioIO.obj
 0002:00006470       ??$_Unchecked_uninitialized_move@PAUAudioDeviceInfo@@PAU1@V?$allocator@UAudioDeviceInfo@@@std@@@stdext@@YAPAUAudioDeviceInfo@@PAU1@00AAV?$allocator@UAudioDeviceInfo@@@std@@@Z 10017470 f i audioIO:audioIO.obj
 0002:000064e0       ??$_Fill@PAUAudioDeviceInfo@@U1@@std@@YAXPAUAudioDeviceInfo@@0ABU1@@Z 100174e0 f i audioIO:audioIO.obj
 0002:00006530       ??$_Move_cat@PAUAudioDeviceInfo@@@std@@YA?AU_Undefined_move_tag@0@ABQAUAudioDeviceInfo@@@Z 10017530 f i audioIO:audioIO.obj
 0002:00006540       ??$_Move_backward_opt@PAUAudioDeviceInfo@@PAU1@Urandom_access_iterator_tag@std@@U_Undefined_move_tag@3@@std@@YAPAUAudioDeviceInfo@@PAU1@00Urandom_access_iterator_tag@0@U_Undefined_move_tag@0@U_Range_checked_iterator_tag@0@@Z 10017540 f i audioIO:audioIO.obj
 0002:00006590       ??$unchecked_uninitialized_copy@V?$_Vector_const_iterator@HV?$allocator@H@std@@@std@@PAHV?$allocator@H@2@@stdext@@YAPAHV?$_Vector_const_iterator@HV?$allocator@H@std@@@std@@0PAHAAV?$allocator@H@2@@Z 10017590 f i audioIO:audioIO.obj
 0002:000066a0       ??$_Uninit_fill_n@PAUAudioDeviceInfo@@IU1@V?$allocator@UAudioDeviceInfo@@@std@@@std@@YAXPAUAudioDeviceInfo@@IABU1@AAV?$allocator@UAudioDeviceInfo@@@0@U_Nonscalar_ptr_iterator_tag@0@U_Range_checked_iterator_tag@0@@Z 100176a0 f i audioIO:audioIO.obj
 0002:00006790       ??4AudioDeviceInfo@@QAEAAU0@ABU0@@Z 10017790 f i audioIO:audioIO.obj
 0002:00006820       ?construct@?$allocator@UAudioDeviceInfo@@@std@@QAEXPAUAudioDeviceInfo@@ABU3@@Z 10017820 f i audioIO:audioIO.obj
 0002:00006850       ?destroy@?$allocator@UAudioDeviceInfo@@@std@@QAEXPAUAudioDeviceInfo@@@Z 10017850 f i audioIO:audioIO.obj
 0002:00006870       ??$_Checked_base@PAH@std@@YAPAHAAPAHU_Unchanged_checked_iterator_base_type_tag@0@@Z 10017870 f i audioIO:audioIO.obj
 0002:00006880       ??$_Debug_range@PAH@std@@YAXPAH0PB_WI@Z 10017880 f i audioIO:audioIO.obj
 0002:000068c0       ??$_Debug_pointer@H@std@@YAXPAHPB_WI@Z 100178c0 f i audioIO:audioIO.obj
 0002:000068f0       ??$_Uninit_copy@PAHPAHV?$allocator@H@std@@@std@@YAPAHPAH00AAV?$allocator@H@0@U_Scalar_ptr_iterator_tag@0@U_Range_checked_iterator_tag@0@@Z 100178f0 f i audioIO:audioIO.obj
 0002:00006990       ??$_Checked_base@PAUAudioDeviceInfo@@@std@@YAPAUAudioDeviceInfo@@AAPAU1@U_Unchanged_checked_iterator_base_type_tag@0@@Z 10017990 f i audioIO:audioIO.obj
 0002:000069a0       ??$_Copy_opt@PAUAudioDeviceInfo@@PAU1@Uforward_iterator_tag@std@@@std@@YAPAUAudioDeviceInfo@@PAU1@00Uforward_iterator_tag@0@U_Nonscalar_ptr_iterator_tag@0@U_Range_checked_iterator_tag@0@@Z 100179a0 f i audioIO:audioIO.obj
 0002:00006a00       ??$_Uninit_move@PAUAudioDeviceInfo@@PAU1@V?$allocator@UAudioDeviceInfo@@@std@@U_Undefined_move_tag@3@@std@@YAPAUAudioDeviceInfo@@PAU1@00AAV?$allocator@UAudioDeviceInfo@@@0@U_Undefined_move_tag@0@U_Range_checked_iterator_tag@0@@Z 10017a00 f i audioIO:audioIO.obj
 0002:00006a30       ??$_Debug_range@PAUAudioDeviceInfo@@@std@@YAXPAUAudioDeviceInfo@@0PB_WI@Z 10017a30 f i audioIO:audioIO.obj
 0002:00006a70       ??$_Copy_backward_opt@PAUAudioDeviceInfo@@PAU1@@std@@YAPAUAudioDeviceInfo@@PAU1@00Urandom_access_iterator_tag@0@U_Nonscalar_ptr_iterator_tag@0@U_Range_checked_iterator_tag@0@@Z 10017a70 f i audioIO:audioIO.obj
 0002:00006ae0       ??$_Checked_base@V?$_Vector_const_iterator@HV?$allocator@H@std@@@std@@@std@@YA?AV?$_Vector_const_iterator@HV?$allocator@H@std@@@0@AAV10@@Z 10017ae0 f i audioIO:audioIO.obj
 0002:00006b20       ??$_Ptr_cat@V?$_Vector_const_iterator@HV?$allocator@H@std@@@std@@PAH@std@@YA?AU_Scalar_ptr_iterator_tag@0@AAV?$_Vector_const_iterator@HV?$allocator@H@std@@@0@AAPAH@Z 10017b20 f i audioIO:audioIO.obj
 0002:00006b30       ??$_Uninit_copy@V?$_Vector_const_iterator@HV?$allocator@H@std@@@std@@PAHV?$allocator@H@2@@std@@YAPAHV?$_Vector_const_iterator@HV?$allocator@H@std@@@0@0PAHAAV?$allocator@H@0@U_Scalar_ptr_iterator_tag@0@U_Range_checked_iterator_tag@0@@Z 10017b30 f i audioIO:audioIO.obj
 0002:00006c80       ??$_Construct@UAudioDeviceInfo@@U1@@std@@YAXPAUAudioDeviceInfo@@ABU1@@Z 10017c80 f i audioIO:audioIO.obj
 0002:00006d20       ??2@YAPAXIPAX@Z            10017d20 f i audioIO:audioIO.obj
 0002:00006d30       ??3@YAXPAX0@Z              10017d30 f i audioIO:audioIO.obj
 0002:00006d40       ??$_Destroy@UAudioDeviceInfo@@@std@@YAXPAUAudioDeviceInfo@@@Z 10017d40 f i audioIO:audioIO.obj
 0002:00006d60       ??_GAudioDeviceInfo@@QAEPAXI@Z 10017d60 f i audioIO:audioIO.obj
 0002:00006da0       ??D?$_Vector_const_iterator@HV?$allocator@H@std@@@std@@QBEABHXZ 10017da0 f i audioIO:audioIO.obj
 0002:00006e50       ??G?$_Vector_const_iterator@HV?$allocator@H@std@@@std@@QBEHABV01@@Z 10017e50 f i audioIO:audioIO.obj
 0002:00006e90       ??$_Iter_cat@PAH@std@@YA?AUrandom_access_iterator_tag@0@ABQAH@Z 10017e90 f i audioIO:audioIO.obj
 0002:00006ea0       ??$_Debug_range2@PAH@std@@YAXPAH0PB_WIUrandom_access_iterator_tag@0@@Z 10017ea0 f i audioIO:audioIO.obj
 0002:00006f10       ??$unchecked_uninitialized_copy@PAUAudioDeviceInfo@@PAU1@V?$allocator@UAudioDeviceInfo@@@std@@@stdext@@YAPAUAudioDeviceInfo@@PAU1@00AAV?$allocator@UAudioDeviceInfo@@@std@@@Z 10017f10 f i audioIO:audioIO.obj
 0002:00006f80       ??$_Iter_cat@PAUAudioDeviceInfo@@@std@@YA?AUrandom_access_iterator_tag@0@ABQAUAudioDeviceInfo@@@Z 10017f80 f i audioIO:audioIO.obj
 0002:00006f90       ??$_Debug_range2@PAUAudioDeviceInfo@@@std@@YAXPAUAudioDeviceInfo@@0PB_WIUrandom_access_iterator_tag@0@@Z 10017f90 f i audioIO:audioIO.obj
 0002:00007000       ??$_Copy_backward_opt@PAUAudioDeviceInfo@@PAU1@Uforward_iterator_tag@std@@@std@@YAPAUAudioDeviceInfo@@PAU1@00Uforward_iterator_tag@0@U_Nonscalar_ptr_iterator_tag@0@U_Range_checked_iterator_tag@0@@Z 10018000 f i audioIO:audioIO.obj
 0002:00007060       ??$_Checked_base@V?$_Vector_const_iterator@HV?$allocator@H@std@@@std@@@std@@YA?AV?$_Vector_const_iterator@HV?$allocator@H@std@@@0@AAV10@U_Unchanged_checked_iterator_base_type_tag@0@@Z 10018060 f i audioIO:audioIO.obj
 0002:00007090       ??$_Debug_range@V?$_Vector_const_iterator@HV?$allocator@H@std@@@std@@@std@@YAXV?$_Vector_const_iterator@HV?$allocator@H@std@@@0@0PB_WI@Z 10018090 f i audioIO:audioIO.obj
 0002:00007170       ??$_Uninit_copy@PAUAudioDeviceInfo@@PAU1@V?$allocator@UAudioDeviceInfo@@@std@@@std@@YAPAUAudioDeviceInfo@@PAU1@00AAV?$allocator@UAudioDeviceInfo@@@0@U_Nonscalar_ptr_iterator_tag@0@U_Range_checked_iterator_tag@0@@Z 10018170 f i audioIO:audioIO.obj
 0002:00007290       ??$_Debug_pointer@UAudioDeviceInfo@@@std@@YAXPAUAudioDeviceInfo@@PB_WI@Z 10018290 f i audioIO:audioIO.obj
 0002:000072c0       ??$_Iter_cat@V?$_Vector_const_iterator@HV?$allocator@H@std@@@std@@@std@@YA?AUrandom_access_iterator_tag@0@ABV?$_Vector_const_iterator@HV?$allocator@H@std@@@0@@Z 100182c0 f i audioIO:audioIO.obj
 0002:000072d0       ??$_Debug_range2@V?$_Vector_const_iterator@HV?$allocator@H@std@@@std@@@std@@YAXV?$_Vector_const_iterator@HV?$allocator@H@std@@@0@0PB_WIUrandom_access_iterator_tag@0@@Z 100182d0 f i audioIO:audioIO.obj
 0002:000073c0       ??$_Debug_pointer@V?$_Vector_const_iterator@HV?$allocator@H@std@@@std@@@std@@YAXAAV?$_Vector_const_iterator@HV?$allocator@H@std@@@0@PB_WI@Z 100183c0 f i audioIO:audioIO.obj
 0002:000073d0       ??0RtAudio@@QAE@W4RtAudioApi@0@@Z 100183d0 f   audioIO:RtAudio.obj
 0002:000073f0       ??0RtAudio@@QAE@HHHHKHPAHHW4RtAudioApi@0@@Z 100183f0 f   audioIO:RtAudio.obj
 0002:000074e0       ??0RtAudio@@QAE@HHHHKHPAH0W4RtAudioApi@0@@Z 100184e0 f   audioIO:RtAudio.obj
 0002:000075d0       ??1RtAudio@@QAE@XZ         100185d0 f   audioIO:RtAudio.obj
 0002:00007610       ?openStream@RtAudio@@QAEXHHHHKHPAHH@Z 10018610 f   audioIO:RtAudio.obj
 0002:00007650       ?openStream@RtAudio@@QAEXHHHHKHPAH0@Z 10018650 f   audioIO:RtAudio.obj
 0002:00007690       ?initialize@RtAudio@@IAEXW4RtAudioApi@1@@Z 10018690 f   audioIO:RtAudio.obj
 0002:000078d0       ??0RtApi@@QAE@XZ           100188d0 f   audioIO:RtAudio.obj
 0002:00007980       ??1RtApi@@UAE@XZ           10018980 f   audioIO:RtAudio.obj
 0002:00007a00       ?openStream@RtApi@@QAEXHHHHKHPAH0@Z 10018a00 f   audioIO:RtAudio.obj
 0002:00007a50       ?openStream@RtApi@@QAEXHHHHKHPAHH@Z 10018a50 f   audioIO:RtAudio.obj
 0002:00007f40       ?getDeviceCount@RtApi@@QAEHXZ 10018f40 f   audioIO:RtAudio.obj
 0002:00007f60       ?getStreamState@RtApi@@QBE?AW4StreamState@1@XZ 10018f60 f   audioIO:RtAudio.obj
 0002:00007f80       ?getDeviceInfo@RtApi@@QAE?AURtAudioDeviceInfo@@H@Z 10018f80 f   audioIO:RtAudio.obj
 0002:000081d0       ?getStreamBuffer@RtApi@@QAEQADXZ 100191d0 f   audioIO:RtAudio.obj
 0002:000081f0       ?getDefaultInputDevice@RtApi@@MAEHXZ 100191f0 f   audioIO:RtAudio.obj
 0002:00008200       ?getDefaultOutputDevice@RtApi@@MAEHXZ 10019200 f   audioIO:RtAudio.obj
 0002:00008210       ?closeStream@RtApi@@UAEXXZ 10019210 f   audioIO:RtAudio.obj
 0002:00008220       ?probeDeviceInfo@RtApi@@MAEXPAURtApiDevice@1@@Z 10019220 f   audioIO:RtAudio.obj
 0002:00008230       ?probeDeviceOpen@RtApi@@MAE_NHW4StreamMode@1@HHKPAHH@Z 10019230 f   audioIO:RtAudio.obj
 0002:00008240       ??0RtApiAsio@@QAE@XZ       10019240 f   audioIO:RtAudio.obj
 0002:000082e0       ??1RtApiAsio@@UAE@XZ       100192e0 f   audioIO:RtAudio.obj
 0002:00008360       ?initialize@RtApiAsio@@EAEXXZ 10019360 f   audioIO:RtAudio.obj
 0002:00008550       ?probeDeviceInfo@RtApiAsio@@EAEXPAURtApiDevice@RtApi@@@Z 10019550 f   audioIO:RtAudio.obj
 0002:00008980       ?bufferSwitch@@YAXJJ@Z     10019980 f   audioIO:RtAudio.obj
 0002:00008a20       ?sampleRateChanged@@YAXN@Z 10019a20 f   audioIO:RtAudio.obj
 0002:00008ae0       ?asioMessages@@YAJJJPAXPAN@Z 10019ae0 f   audioIO:RtAudio.obj
 0002:00008bf0       ?probeDeviceOpen@RtApiAsio@@EAE_NHW4StreamMode@RtApi@@HHKPAHH@Z 10019bf0 f   audioIO:RtAudio.obj
 0002:00009e10       ?closeStream@RtApiAsio@@UAEXXZ 1001ae10 f   audioIO:RtAudio.obj
 0002:00009f30       ?setStreamCallback@RtApiAsio@@UAEXP6AHPADHPAX@Z1@Z 1001af30 f   audioIO:RtAudio.obj
 0002:00009fa0       ?cancelStreamCallback@RtApiAsio@@UAEXXZ 1001afa0 f   audioIO:RtAudio.obj
 0002:0000a030       ?startStream@RtApiAsio@@UAEXXZ 1001b030 f   audioIO:RtAudio.obj
 0002:0000a100       ?stopStream@RtApiAsio@@UAEXXZ 1001b100 f   audioIO:RtAudio.obj
 0002:0000a1b0       ?abortStream@RtApiAsio@@UAEXXZ 1001b1b0 f   audioIO:RtAudio.obj
 0002:0000a1d0       ?tickStream@RtApiAsio@@UAEXXZ 1001b1d0 f   audioIO:RtAudio.obj
 0002:0000a270       ?callbackEvent@RtApiAsio@@QAEXJ@Z 1001b270 f   audioIO:RtAudio.obj
 0002:0000a700       ?error@RtApi@@IAEXW4Type@RtError@@@Z 1001b700 f   audioIO:RtAudio.obj
 0002:0000a7c0       ?verifyStream@RtApi@@IAEXXZ 1001b7c0 f   audioIO:RtAudio.obj
 0002:0000a800       ?clearDeviceInfo@RtApi@@IAEXPAURtApiDevice@1@@Z 1001b800 f   audioIO:RtAudio.obj
 0002:0000a870       ?clearStreamInfo@RtApi@@IAEXXZ 1001b870 f   audioIO:RtAudio.obj
 0002:0000a950       ?formatBytes@RtApi@@IAEHK@Z 1001b950 f   audioIO:RtAudio.obj
 0002:0000a9d0       ?convertBuffer@RtApi@@IAEXPAD0AAUConvertInfo@1@@Z 1001b9d0 f   audioIO:RtAudio.obj
 0002:0000ca70       ?byteSwapBuffer@RtApi@@IAEXPADHK@Z 1001da70 f   audioIO:RtAudio.obj
 0002:0000e220       ??1RtError@@UAE@XZ         1001f220 f i audioIO:RtAudio.obj
 0002:0000e250       ?printMessage@RtError@@UAEXXZ 1001f250 f i audioIO:RtAudio.obj
 0002:0000e2a0       ?getType@RtError@@UAEABW4Type@1@XZ 1001f2a0 f i audioIO:RtAudio.obj
 0002:0000e2c0       ?getMessage@RtError@@UAEABV?$basic_string@DU?$char_traits@D@std@@V?$allocator@D@2@@std@@XZ 1001f2c0 f i audioIO:RtAudio.obj
 0002:0000e2e0       ?getMessageString@RtError@@UAEPBDXZ 1001f2e0 f i audioIO:RtAudio.obj
 0002:0000e300       ??_ERtError@@UAEPAXI@Z     1001f300 f i audioIO:RtAudio.obj
 0002:0000e300       ??_GRtError@@UAEPAXI@Z     1001f300 f i audioIO:RtAudio.obj
 0002:0000e340       ??0RtError@@QAE@ABV0@@Z    1001f340 f i audioIO:RtAudio.obj
 0002:0000e390       ??0RtError@@QAE@ABV?$basic_string@DU?$char_traits@D@std@@V?$allocator@D@2@@std@@W4Type@0@@Z 1001f390 f i audioIO:RtAudio.obj
 0002:0000e3d0       ??0RtApiStream@RtApi@@QAE@XZ 1001f3d0 f i audioIO:RtAudio.obj
 0002:0000e440       ??0CallbackInfo@@QAE@XZ    1001f440 f i audioIO:RtAudio.obj
 0002:0000e490       ??0ConvertInfo@RtApi@@QAE@XZ 1001f490 f i audioIO:RtAudio.obj
 0002:0000e510       ??1ConvertInfo@RtApi@@QAE@XZ 1001f510 f i audioIO:RtAudio.obj
 0002:0000e580       ??_GRtApi@@UAEPAXI@Z       1001f580 f i audioIO:RtAudio.obj
 0002:0000e580       ??_ERtApi@@UAEPAXI@Z       1001f580 f i audioIO:RtAudio.obj
 0002:0000e5c0       ??1RtApiStream@RtApi@@QAE@XZ 1001f5c0 f i audioIO:RtAudio.obj
 0002:0000e5f0       ??0RtAudioDeviceInfo@@QAE@ABU0@@Z 1001f5f0 f i audioIO:RtAudio.obj
 0002:0000e6d0       ??_ERtApiAsio@@UAEPAXI@Z   1001f6d0 f i audioIO:RtAudio.obj
 0002:0000e6d0       ??_GRtApiAsio@@UAEPAXI@Z   1001f6d0 f i audioIO:RtAudio.obj
 0002:0000e710       ??0RtApiDevice@RtApi@@QAE@XZ 1001f710 f i audioIO:RtAudio.obj
 0002:0000e810       ??1RtApiDevice@RtApi@@QAE@XZ 1001f810 f i audioIO:RtAudio.obj
 0002:0000e880       ??A?$vector@HV?$allocator@H@std@@@std@@QAEAAHI@Z 1001f880 f i audioIO:RtAudio.obj
 0002:0000e990       ?push_back@?$vector@HV?$allocator@H@std@@@std@@QAEXABH@Z 1001f990 f i audioIO:RtAudio.obj
 0002:0000ea40       ??0?$vector@URtApiDevice@RtApi@@V?$allocator@URtApiDevice@RtApi@@@std@@@std@@QAE@XZ 1001fa40 f i audioIO:RtAudio.obj
 0002:0000eac0       ??1?$vector@URtApiDevice@RtApi@@V?$allocator@URtApiDevice@RtApi@@@std@@@std@@QAE@XZ 1001fac0 f i audioIO:RtAudio.obj
 0002:0000eb30       ?size@?$vector@URtApiDevice@RtApi@@V?$allocator@URtApiDevice@RtApi@@@std@@@std@@QBEIXZ 1001fb30 f i audioIO:RtAudio.obj
 0002:0000eb80       ??A?$vector@URtApiDevice@RtApi@@V?$allocator@URtApiDevice@RtApi@@@std@@@std@@QAEAAURtApiDevice@RtApi@@I@Z 1001fb80 f i audioIO:RtAudio.obj
 0002:0000ec90       ?push_back@?$vector@URtApiDevice@RtApi@@V?$allocator@URtApiDevice@RtApi@@@std@@@std@@QAEXABURtApiDevice@RtApi@@@Z 1001fc90 f i audioIO:RtAudio.obj
 0002:0000ed40       ??1?$_Vector_val@URtApiDevice@RtApi@@V?$allocator@URtApiDevice@RtApi@@@std@@@std@@QAE@XZ 1001fd40 f i audioIO:RtAudio.obj
 0002:0000ed60       ??1?$_Vector_iterator@URtApiDevice@RtApi@@V?$allocator@URtApiDevice@RtApi@@@std@@@std@@QAE@XZ 1001fd60 f i audioIO:RtAudio.obj
 0002:0000ed80       ??1?$_Vector_const_iterator@URtApiDevice@RtApi@@V?$allocator@URtApiDevice@RtApi@@@std@@@std@@QAE@XZ 1001fd80 f i audioIO:RtAudio.obj
 0002:0000eda0       ??1?$_Ranit@URtApiDevice@RtApi@@HPBU12@ABU12@@std@@QAE@XZ 1001fda0 f i audioIO:RtAudio.obj
 0002:0000edc0       ?insert@?$vector@HV?$allocator@H@std@@@std@@QAE?AV?$_Vector_iterator@HV?$allocator@H@std@@@2@V32@ABH@Z 1001fdc0 f i audioIO:RtAudio.obj
 0002:0000ef30       ?_Ufill@?$vector@HV?$allocator@H@std@@@std@@IAEPAHPAHIABH@Z 1001ff30 f i audioIO:RtAudio.obj
 0002:0000ef70       ?capacity@?$vector@URtApiDevice@RtApi@@V?$allocator@URtApiDevice@RtApi@@@std@@@std@@QBEIXZ 1001ff70 f i audioIO:RtAudio.obj
 0002:0000efc0       ?end@?$vector@URtApiDevice@RtApi@@V?$allocator@URtApiDevice@RtApi@@@std@@@std@@QAE?AV?$_Vector_iterator@URtApiDevice@RtApi@@V?$allocator@URtApiDevice@RtApi@@@std@@@2@XZ 1001ffc0 f i audioIO:RtAudio.obj
 0002:0000f010       ?insert@?$vector@URtApiDevice@RtApi@@V?$allocator@URtApiDevice@RtApi@@@std@@@std@@QAE?AV?$_Vector_iterator@URtApiDevice@RtApi@@V?$allocator@URtApiDevice@RtApi@@@std@@@2@V32@ABURtApiDevice@RtApi@@@Z 10020010 f i audioIO:RtAudio.obj
 0002:0000f180       ?_Buy@?$vector@URtApiDevice@RtApi@@V?$allocator@URtApiDevice@RtApi@@@std@@@std@@IAE_NI@Z 10020180 f i audioIO:RtAudio.obj
 0002:0000f220       ?_Tidy@?$vector@URtApiDevice@RtApi@@V?$allocator@URtApiDevice@RtApi@@@std@@@std@@IAEXXZ 10020220 f i audioIO:RtAudio.obj
 0002:0000f2c0       ?_Ufill@?$vector@URtApiDevice@RtApi@@V?$allocator@URtApiDevice@RtApi@@@std@@@std@@IAEPAURtApiDevice@RtApi@@PAU34@IABU34@@Z 100202c0 f i audioIO:RtAudio.obj
 0002:0000f300       ?_Orphan_range@?$vector@URtApiDevice@RtApi@@V?$allocator@URtApiDevice@RtApi@@@std@@@std@@IBEXPAURtApiDevice@RtApi@@0@Z 10020300 f i audioIO:RtAudio.obj
 0002:0000f390       ??0?$_Vector_val@URtApiDevice@RtApi@@V?$allocator@URtApiDevice@RtApi@@@std@@@std@@IAE@V?$allocator@URtApiDevice@RtApi@@@1@@Z 10020390 f i audioIO:RtAudio.obj
 0002:0000f3d0       ??0?$allocator@URtApiDevice@RtApi@@@std@@QAE@XZ 100203d0 f i audioIO:RtAudio.obj
 0002:0000f3f0       ??0?$_Vector_iterator@HV?$allocator@H@std@@@std@@QAE@ABV01@@Z 100203f0 f i audioIO:RtAudio.obj
 0002:0000f420       ??0?$_Vector_iterator@URtApiDevice@RtApi@@V?$allocator@URtApiDevice@RtApi@@@std@@@std@@QAE@ABV01@@Z 10020420 f i audioIO:RtAudio.obj
 0002:0000f450       ??0?$_Vector_const_iterator@URtApiDevice@RtApi@@V?$allocator@URtApiDevice@RtApi@@@std@@@std@@QAE@ABV01@@Z 10020450 f i audioIO:RtAudio.obj
 0002:0000f490       ??0?$_Ranit@URtApiDevice@RtApi@@HPBU12@ABU12@@std@@QAE@ABU01@@Z 10020490 f i audioIO:RtAudio.obj
 0002:0000f4c0       ?_Insert_n@?$vector@HV?$allocator@H@std@@@std@@IAEXV?$_Vector_iterator@HV?$allocator@H@std@@@2@IABH@Z 100204c0 f i audioIO:RtAudio.obj
 0002:0000f970       ?begin@?$vector@URtApiDevice@RtApi@@V?$allocator@URtApiDevice@RtApi@@@std@@@std@@QAE?AV?$_Vector_iterator@URtApiDevice@RtApi@@V?$allocator@URtApiDevice@RtApi@@@std@@@2@XZ 10020970 f i audioIO:RtAudio.obj
 0002:0000f9c0       ?max_size@?$vector@URtApiDevice@RtApi@@V?$allocator@URtApiDevice@RtApi@@@std@@@std@@QBEIXZ 100209c0 f i audioIO:RtAudio.obj
 0002:0000f9e0       ?_Destroy@?$vector@URtApiDevice@RtApi@@V?$allocator@URtApiDevice@RtApi@@@std@@@std@@IAEXPAURtApiDevice@RtApi@@0@Z 100209e0 f i audioIO:RtAudio.obj
 0002:0000fa10       ?_Insert_n@?$vector@URtApiDevice@RtApi@@V?$allocator@URtApiDevice@RtApi@@@std@@@std@@IAEXV?$_Vector_iterator@URtApiDevice@RtApi@@V?$allocator@URtApiDevice@RtApi@@@std@@@2@IABURtApiDevice@RtApi@@@Z 10020a10 f i audioIO:RtAudio.obj
 0002:00010010       ?_Xlen@?$vector@URtApiDevice@RtApi@@V?$allocator@URtApiDevice@RtApi@@@std@@@std@@KAXXZ 10021010 f i audioIO:RtAudio.obj
 0002:000100a0       ??0?$allocator@URtApiDevice@RtApi@@@std@@QAE@ABV01@@Z 100210a0 f i audioIO:RtAudio.obj
 0002:000100c0       ?deallocate@?$allocator@URtApiDevice@RtApi@@@std@@QAEXPAURtApiDevice@RtApi@@I@Z 100210c0 f i audioIO:RtAudio.obj
 0002:000100e0       ?allocate@?$allocator@URtApiDevice@RtApi@@@std@@QAEPAURtApiDevice@RtApi@@I@Z 100210e0 f i audioIO:RtAudio.obj
 0002:00010110       ??H?$_Vector_iterator@HV?$allocator@H@std@@@std@@QBE?AV01@H@Z 10021110 f i audioIO:RtAudio.obj
 0002:000101b0       ??G?$_Vector_iterator@HV?$allocator@H@std@@@std@@QBEHABV?$_Vector_const_iterator@HV?$allocator@H@std@@@1@@Z 100211b0 f i audioIO:RtAudio.obj
 0002:000101d0       ??0?$_Vector_iterator@URtApiDevice@RtApi@@V?$allocator@URtApiDevice@RtApi@@@std@@@std@@QAE@PAURtApiDevice@RtApi@@PBV_Container_base@1@@Z 100211d0 f i audioIO:RtAudio.obj
 0002:00010200       ??H?$_Vector_iterator@URtApiDevice@RtApi@@V?$allocator@URtApiDevice@RtApi@@@std@@@std@@QBE?AV01@H@Z 10021200 f i audioIO:RtAudio.obj
 0002:000102a0       ??G?$_Vector_iterator@URtApiDevice@RtApi@@V?$allocator@URtApiDevice@RtApi@@@std@@@std@@QBEHABV?$_Vector_const_iterator@URtApiDevice@RtApi@@V?$allocator@URtApiDevice@RtApi@@@std@@@1@@Z 100212a0 f i audioIO:RtAudio.obj
 0002:000102c0       ??0RtApiDevice@RtApi@@QAE@ABU01@@Z 100212c0 f i audioIO:RtAudio.obj
 0002:000103f0       ?max_size@?$allocator@URtApiDevice@RtApi@@@std@@QBEIXZ 100213f0 f i audioIO:RtAudio.obj
 0002:00010430       ??Y?$_Vector_iterator@HV?$allocator@H@std@@@std@@QAEAAV01@H@Z 10021430 f i audioIO:RtAudio.obj
 0002:00010460       ??Y?$_Vector_iterator@URtApiDevice@RtApi@@V?$allocator@URtApiDevice@RtApi@@@std@@@std@@QAEAAV01@H@Z 10021460 f i audioIO:RtAudio.obj
 0002:00010490       ??0?$_Vector_const_iterator@URtApiDevice@RtApi@@V?$allocator@URtApiDevice@RtApi@@@std@@@std@@QAE@PAURtApiDevice@RtApi@@PBV_Container_base@1@@Z 10021490 f i audioIO:RtAudio.obj
 0002:00010580       ??G?$_Vector_const_iterator@URtApiDevice@RtApi@@V?$allocator@URtApiDevice@RtApi@@@std@@@std@@QBEHABV01@@Z 10021580 f i audioIO:RtAudio.obj
 0002:000105c0       ??0?$_Ranit@URtApiDevice@RtApi@@HPBU12@ABU12@@std@@QAE@XZ 100215c0 f i audioIO:RtAudio.obj
 0002:000105e0       ??Y?$_Vector_const_iterator@HV?$allocator@H@std@@@std@@QAEAAV01@H@Z 100215e0 f i audioIO:RtAudio.obj
 0002:00010700       ??Y?$_Vector_const_iterator@URtApiDevice@RtApi@@V?$allocator@URtApiDevice@RtApi@@@std@@@std@@QAEAAV01@H@Z 10021700 f i audioIO:RtAudio.obj
 0002:00010820       ?_Compat@?$_Vector_const_iterator@URtApiDevice@RtApi@@V?$allocator@URtApiDevice@RtApi@@@std@@@std@@QBEXABV12@@Z 10021820 f i audioIO:RtAudio.obj
 0002:000108c0       ??$?6U?$char_traits@D@std@@@std@@YAAAV?$basic_ostream@DU?$char_traits@D@std@@@0@AAV10@D@Z 100218c0 f i audioIO:RtAudio.obj
 0002:00010c30       ??0sentry@?$basic_ostream@DU?$char_traits@D@std@@@std@@QAE@AAV12@@Z 10021c30 f i audioIO:RtAudio.obj
 0002:00010d20       ??1sentry@?$basic_ostream@DU?$char_traits@D@std@@@std@@QAE@XZ 10021d20 f i audioIO:RtAudio.obj
 0002:00010da0       ??Bsentry@?$basic_ostream@DU?$char_traits@D@std@@@std@@QBE_NXZ 10021da0 f i audioIO:RtAudio.obj
 0002:00010dc0       ??0_Sentry_base@?$basic_ostream@DU?$char_traits@D@std@@@std@@QAE@AAV12@@Z 10021dc0 f i audioIO:RtAudio.obj
 0002:00010e30       ??1_Sentry_base@?$basic_ostream@DU?$char_traits@D@std@@@std@@QAE@XZ 10021e30 f i audioIO:RtAudio.obj
 0002:00010e90       ??$?6U?$char_traits@D@std@@@std@@YAAAV?$basic_ostream@DU?$char_traits@D@std@@@0@AAV10@PBD@Z 10021e90 f i audioIO:RtAudio.obj
 0002:00011220       ??$unchecked_uninitialized_fill_n@PAHIHV?$allocator@H@std@@@stdext@@YAXPAHIABHAAV?$allocator@H@std@@@Z 10022220 f i audioIO:RtAudio.obj
 0002:00011270       ??$unchecked_uninitialized_fill_n@PAURtApiDevice@RtApi@@IU12@V?$allocator@URtApiDevice@RtApi@@@std@@@stdext@@YAXPAURtApiDevice@RtApi@@IABU12@AAV?$allocator@URtApiDevice@RtApi@@@std@@@Z 10022270 f i audioIO:RtAudio.obj
 0002:000112c0       ??$_Umove@PAH@?$vector@HV?$allocator@H@std@@@std@@IAEPAHPAH00@Z 100222c0 f i audioIO:RtAudio.obj
 0002:00011300       ??$fill@PAHH@std@@YAXPAH0ABH@Z 10022300 f i audioIO:RtAudio.obj
 0002:00011340       ??$_Unchecked_move_backward@PAHPAH@stdext@@YAPAHPAH00@Z 10022340 f i audioIO:RtAudio.obj
 0002:000113c0       ??$_Destroy_range@URtApiDevice@RtApi@@V?$allocator@URtApiDevice@RtApi@@@std@@@std@@YAXPAURtApiDevice@RtApi@@0AAV?$allocator@URtApiDevice@RtApi@@@0@@Z 100223c0 f i audioIO:RtAudio.obj
 0002:00011400       ??$_Umove@PAURtApiDevice@RtApi@@@?$vector@URtApiDevice@RtApi@@V?$allocator@URtApiDevice@RtApi@@@std@@@std@@IAEPAURtApiDevice@RtApi@@PAU23@00@Z 10022400 f i audioIO:RtAudio.obj
 0002:00011440       ??$fill@PAURtApiDevice@RtApi@@U12@@std@@YAXPAURtApiDevice@RtApi@@0ABU12@@Z 10022440 f i audioIO:RtAudio.obj
 0002:00011480       ??$_Unchecked_move_backward@PAURtApiDevice@RtApi@@PAU12@@stdext@@YAPAURtApiDevice@RtApi@@PAU12@00@Z 10022480 f i audioIO:RtAudio.obj
 0002:00011500       ??$_Allocate@URtApiDevice@RtApi@@@std@@YAPAURtApiDevice@RtApi@@IPAU12@@Z 10022500 f i audioIO:RtAudio.obj
 0002:00011560       ??$_Uninit_fill_n@PAHIHV?$allocator@H@std@@@std@@YAXPAHIABHAAV?$allocator@H@0@U_Scalar_ptr_iterator_tag@0@U_Range_checked_iterator_tag@0@@Z 10022560 f i audioIO:RtAudio.obj
 0002:00011580       ??$_Ptr_cat@PAURtApiDevice@RtApi@@PAU12@@std@@YA?AU_Nonscalar_ptr_iterator_tag@0@AAPAURtApiDevice@RtApi@@0@Z 10022580 f i audioIO:RtAudio.obj
 0002:00011590       ??$_Uninit_fill_n@PAURtApiDevice@RtApi@@IU12@V?$allocator@URtApiDevice@RtApi@@@std@@@std@@YAXPAURtApiDevice@RtApi@@IABU12@AAV?$allocator@URtApiDevice@RtApi@@@0@U_Nonscalar_ptr_iterator_tag@0@U_Range_checked_iterator_tag@0@@Z 10022590 f i audioIO:RtAudio.obj
 0002:00011680       ??$_Unchecked_uninitialized_move@PAHPAHV?$allocator@H@std@@@stdext@@YAPAHPAH00AAV?$allocator@H@std@@@Z 10022680 f i audioIO:RtAudio.obj
 0002:000116f0       ??$_Fill@PAHH@std@@YAXPAH0ABH@Z 100226f0 f i audioIO:RtAudio.obj
 0002:00011740       ??$_Move_cat@PAH@std@@YA?AU_Undefined_move_tag@0@ABQAH@Z 10022740 f i audioIO:RtAudio.obj
 0002:00011750       ??$_Move_backward_opt@PAHPAHUrandom_access_iterator_tag@std@@U_Undefined_move_tag@2@@std@@YAPAHPAH00Urandom_access_iterator_tag@0@U_Undefined_move_tag@0@U_Range_checked_iterator_tag@0@@Z 10022750 f i audioIO:RtAudio.obj
 0002:000117a0       ??$_Destroy_range@URtApiDevice@RtApi@@V?$allocator@URtApiDevice@RtApi@@@std@@@std@@YAXPAURtApiDevice@RtApi@@0AAV?$allocator@URtApiDevice@RtApi@@@0@U_Nonscalar_ptr_iterator_tag@0@@Z 100227a0 f i audioIO:RtAudio.obj
 0002:000117d0       ??$_Unchecked_uninitialized_move@PAURtApiDevice@RtApi@@PAU12@V?$allocator@URtApiDevice@RtApi@@@std@@@stdext@@YAPAURtApiDevice@RtApi@@PAU12@00AAV?$allocator@URtApiDevice@RtApi@@@std@@@Z 100227d0 f i audioIO:RtAudio.obj
 0002:00011840       ??$_Checked_base@PAURtApiDevice@RtApi@@@std@@YAPAURtApiDevice@RtApi@@AAPAU12@@Z 10022840 f i audioIO:RtAudio.obj
 0002:00011860       ??$_Fill@PAURtApiDevice@RtApi@@U12@@std@@YAXPAURtApiDevice@RtApi@@0ABU12@@Z 10022860 f i audioIO:RtAudio.obj
 0002:000118b0       ??$_Iter_random@PAURtApiDevice@RtApi@@PAU12@@std@@YA?AUrandom_access_iterator_tag@0@ABQAURtApiDevice@RtApi@@0@Z 100228b0 f i audioIO:RtAudio.obj
 0002:000118c0       ??$_Move_cat@PAURtApiDevice@RtApi@@@std@@YA?AU_Undefined_move_tag@0@ABQAURtApiDevice@RtApi@@@Z 100228c0 f i audioIO:RtAudio.obj
 0002:000118d0       ??$_Move_backward_opt@PAURtApiDevice@RtApi@@PAU12@Urandom_access_iterator_tag@std@@U_Undefined_move_tag@4@@std@@YAPAURtApiDevice@RtApi@@PAU12@00Urandom_access_iterator_tag@0@U_Undefined_move_tag@0@U_Range_checked_iterator_tag@0@@Z 100228d0 f i audioIO:RtAudio.obj
 0002:00011920       ??4RtApiDevice@RtApi@@QAEAAU01@ABU01@@Z 10022920 f i audioIO:RtAudio.obj
 0002:00011a00       ?construct@?$allocator@URtApiDevice@RtApi@@@std@@QAEXPAURtApiDevice@RtApi@@ABU34@@Z 10022a00 f i audioIO:RtAudio.obj
 0002:00011a30       ?destroy@?$allocator@URtApiDevice@RtApi@@@std@@QAEXPAURtApiDevice@RtApi@@@Z 10022a30 f i audioIO:RtAudio.obj
 0002:00011a50       ??$unchecked_fill_n@PAHIH@stdext@@YAXPAHIABH@Z 10022a50 f i audioIO:RtAudio.obj
 0002:00011aa0       ??$_Uninit_move@PAHPAHV?$allocator@H@std@@U_Undefined_move_tag@2@@std@@YAPAHPAH00AAV?$allocator@H@0@U_Undefined_move_tag@0@U_Range_checked_iterator_tag@0@@Z 10022aa0 f i audioIO:RtAudio.obj
 0002:00011ad0       ??$_Copy_backward_opt@PAHPAHUrandom_access_iterator_tag@std@@@std@@YAPAHPAH00Urandom_access_iterator_tag@0@U_Scalar_ptr_iterator_tag@0@U_Range_checked_iterator_tag@0@@Z 10022ad0 f i audioIO:RtAudio.obj
 0002:00011b80       ??$_Uninit_move@PAURtApiDevice@RtApi@@PAU12@V?$allocator@URtApiDevice@RtApi@@@std@@U_Undefined_move_tag@4@@std@@YAPAURtApiDevice@RtApi@@PAU12@00AAV?$allocator@URtApiDevice@RtApi@@@0@U_Undefined_move_tag@0@U_Range_checked_iterator_tag@0@@Z 10022b80 f i audioIO:RtAudio.obj
 0002:00011bb0       ??$_Checked_base@PAURtApiDevice@RtApi@@@std@@YAPAURtApiDevice@RtApi@@AAPAU12@U_Unchanged_checked_iterator_base_type_tag@0@@Z 10022bb0 f i audioIO:RtAudio.obj
 0002:00011bc0       ??$_Debug_range@PAURtApiDevice@RtApi@@@std@@YAXPAURtApiDevice@RtApi@@0PB_WI@Z 10022bc0 f i audioIO:RtAudio.obj
 0002:00011c00       ??$_Copy_backward_opt@PAURtApiDevice@RtApi@@PAU12@@std@@YAPAURtApiDevice@RtApi@@PAU12@00Urandom_access_iterator_tag@0@U_Nonscalar_ptr_iterator_tag@0@U_Range_checked_iterator_tag@0@@Z 10022c00 f i audioIO:RtAudio.obj
 0002:00011c70       ??$_Construct@URtApiDevice@RtApi@@U12@@std@@YAXPAURtApiDevice@RtApi@@ABU12@@Z 10022c70 f i audioIO:RtAudio.obj
 0002:00011d10       ??$_Destroy@URtApiDevice@RtApi@@@std@@YAXPAURtApiDevice@RtApi@@@Z 10022d10 f i audioIO:RtAudio.obj
 0002:00011d30       ??_GRtApiDevice@RtApi@@QAEPAXI@Z 10022d30 f i audioIO:RtAudio.obj
 0002:00011d70       ??$_Fill_n@PAHIH@std@@YAXPAHIABHUrandom_access_iterator_tag@0@U_Range_checked_iterator_tag@0@@Z 10022d70 f i audioIO:RtAudio.obj
 0002:00011dc0       ??$unchecked_uninitialized_copy@PAURtApiDevice@RtApi@@PAU12@V?$allocator@URtApiDevice@RtApi@@@std@@@stdext@@YAPAURtApiDevice@RtApi@@PAU12@00AAV?$allocator@URtApiDevice@RtApi@@@std@@@Z 10022dc0 f i audioIO:RtAudio.obj
 0002:00011e30       ??$_Iter_cat@PAURtApiDevice@RtApi@@@std@@YA?AUrandom_access_iterator_tag@0@ABQAURtApiDevice@RtApi@@@Z 10022e30 f i audioIO:RtAudio.obj
 0002:00011e40       ??$_Debug_range2@PAURtApiDevice@RtApi@@@std@@YAXPAURtApiDevice@RtApi@@0PB_WIUrandom_access_iterator_tag@0@@Z 10022e40 f i audioIO:RtAudio.obj
 0002:00011eb0       ??$_Copy_backward_opt@PAURtApiDevice@RtApi@@PAU12@Uforward_iterator_tag@std@@@std@@YAPAURtApiDevice@RtApi@@PAU12@00Uforward_iterator_tag@0@U_Nonscalar_ptr_iterator_tag@0@U_Range_checked_iterator_tag@0@@Z 10022eb0 f i audioIO:RtAudio.obj
 0002:00011f10       ??$_Fill_n@PAHIH@std@@YAXPAHIABHU_Range_checked_iterator_tag@0@@Z 10022f10 f i audioIO:RtAudio.obj
 0002:00011f50       ??$_Uninit_copy@PAURtApiDevice@RtApi@@PAU12@V?$allocator@URtApiDevice@RtApi@@@std@@@std@@YAPAURtApiDevice@RtApi@@PAU12@00AAV?$allocator@URtApiDevice@RtApi@@@0@U_Nonscalar_ptr_iterator_tag@0@U_Range_checked_iterator_tag@0@@Z 10022f50 f i audioIO:RtAudio.obj
 0002:00012070       ??$_Debug_pointer@URtApiDevice@RtApi@@@std@@YAXPAURtApiDevice@RtApi@@PB_WI@Z 10023070 f i audioIO:RtAudio.obj
 0002:000120a0       ?loadAsioDriver@@YA_NPAD@Z 100230a0 f   audioIO:asiodrivers.obj
 0002:00012140       ?getAsioDrivers@@YA_NXZ    10023140 f   audioIO:asiodrivers.obj
 0002:000122e0       ??0AsioDrivers@@QAE@XZ     100232e0 f   audioIO:asiodrivers.obj
 0002:00012300       ??1AsioDrivers@@QAE@XZ     10023300 f   audioIO:asiodrivers.obj
 0002:00012320       ?getCurrentDriverName@AsioDrivers@@QAE_NPAD@Z 10023320 f   audioIO:asiodrivers.obj
 0002:00012360       ?getDriverNames@AsioDrivers@@QAEJPAPADJ@Z 10023360 f   audioIO:asiodrivers.obj
 0002:000123e0       ?loadDriver@AsioDrivers@@QAE_NPAD@Z 100233e0 f   audioIO:asiodrivers.obj
 0002:00012510       ?removeCurrentDriver@AsioDrivers@@QAEXXZ 10023510 f   audioIO:asiodrivers.obj
 0002:00012670       ??_GAsioDrivers@@QAEPAXI@Z 10023670 f i audioIO:asiodrivers.obj
 0002:000126b0       ??0AsioDriverList@@QAE@XZ  100236b0 f   audioIO:asiolist.obj
 0002:00012c80       ??1AsioDriverList@@QAE@XZ  10023c80 f   audioIO:asiolist.obj
 0002:00012d10       ?asioGetNumDev@AsioDriverList@@QAEJXZ 10023d10 f   audioIO:asiolist.obj
 0002:00012d30       ?asioOpenDriver@AsioDriverList@@QAEJHPAPAX@Z 10023d30 f   audioIO:asiolist.obj
 0002:00012e00       ?asioCloseDriver@AsioDriverList@@QAEJH@Z 10023e00 f   audioIO:asiolist.obj
 0002:00012e70       ?asioGetDriverName@AsioDriverList@@QAEJHPADH@Z 10023e70 f   audioIO:asiolist.obj
 0002:00012f30       ?asioGetDriverPath@AsioDriverList@@QAEJHPADH@Z 10023f30 f   audioIO:asiolist.obj
 0002:00012fb0       ?asioGetDriverCLSID@AsioDriverList@@QAEJHPAU_GUID@@@Z 10023fb0 f   audioIO:asiolist.obj
 0002:00013270       ?ASIOInit@@YAJPAUASIODriverInfo@@@Z 10024270 f   audioIO:asio.obj
 0002:00013340       ?ASIOExit@@YAJXZ           10024340 f   audioIO:asio.obj
 0002:00013370       ?ASIOStart@@YAJXZ          10024370 f   audioIO:asio.obj
 0002:000133a0       ?ASIOStop@@YAJXZ           100243a0 f   audioIO:asio.obj
 0002:000133d0       ?ASIOGetChannels@@YAJPAJ0@Z 100243d0 f   audioIO:asio.obj
 0002:00013420       ?ASIOGetLatencies@@YAJPAJ0@Z 10024420 f   audioIO:asio.obj
 0002:00013470       ?ASIOGetBufferSize@@YAJPAJ000@Z 10024470 f   audioIO:asio.obj
 0002:000134d0       ?ASIOCanSampleRate@@YAJN@Z 100244d0 f   audioIO:asio.obj
 0002:00013500       ?ASIOGetSampleRate@@YAJPAN@Z 10024500 f   audioIO:asio.obj
 0002:00013530       ?ASIOSetSampleRate@@YAJN@Z 10024530 f   audioIO:asio.obj
 0002:00013560       ?ASIOGetClockSources@@YAJPAUASIOClockSource@@PAJ@Z 10024560 f   audioIO:asio.obj
 0002:000135a0       ?ASIOSetClockSource@@YAJJ@Z 100245a0 f   audioIO:asio.obj
 0002:000135d0       ?ASIOGetSamplePosition@@YAJPAUASIOSamples@@PAUASIOTimeStamp@@@Z 100245d0 f   audioIO:asio.obj
 0002:00013600       ?ASIOGetChannelInfo@@YAJPAUASIOChannelInfo@@@Z 10024600 f   audioIO:asio.obj
 0002:00013660       ?ASIOCreateBuffers@@YAJPAUASIOBufferInfo@@JJPAUASIOCallbacks@@@Z 10024660 f   audioIO:asio.obj
 0002:000136e0       ?ASIODisposeBuffers@@YAJXZ 100246e0 f   audioIO:asio.obj
 0002:00013710       ?ASIOControlPanel@@YAJXZ   10024710 f   audioIO:asio.obj
 0002:00013740       ?ASIOFuture@@YAJJPAX@Z     10024740 f   audioIO:asio.obj
 0002:00013770       ?ASIOOutputReady@@YAJXZ    10024770 f   audioIO:asio.obj
 0002:000138e0       _mxCreateDoubleMatrix_730  100248e0 f   libmx:libmx.dll
 0002:000138e6       _mxArrayToString           100248e6 f   libmx:libmx.dll
 0002:000138ec       _mxGetPr                   100248ec f   libmx:libmx.dll
 0002:000138f2       _mexPrintf                 100248f2 f   libmex:libmex.dll
 0002:000138f8       _GetForegroundWindow@0     100248f8 f   user32:USER32.dll
 0002:000138fe       _CharLowerBuffA@8          100248fe f   user32:USER32.dll
 0002:00013904       _RegCloseKey@4             10024904 f   advapi32:ADVAPI32.dll
 0002:0001390a       _RegEnumKeyA@16            1002490a f   advapi32:ADVAPI32.dll
 0002:00013910       _RegOpenKeyA@12            10024910 f   advapi32:ADVAPI32.dll
 0002:00013916       _RegQueryValueExA@24       10024916 f   advapi32:ADVAPI32.dll
 0002:0001391c       _RegOpenKeyExA@20          1002491c f   advapi32:ADVAPI32.dll
 0002:00013922       _CoUninitialize@0          10024922 f   ole32:ole32.dll
 0002:00013928       _CoInitialize@4            10024928 f   ole32:ole32.dll
 0002:0001392e       _CLSIDFromString@8         1002492e f   ole32:ole32.dll
 0002:00013934       _CoCreateInstance@20       10024934 f   ole32:ole32.dll
 0002:0001393a       _InitializeCriticalSection@4 1002493a f   kernel32:KERNEL32.dll
 0002:00013940       _DeleteCriticalSection@4   10024940 f   kernel32:KERNEL32.dll
 0002:00013946       _CloseHandle@4             10024946 f   kernel32:KERNEL32.dll
 0002:0001394c       _CreateEventA@16           1002494c f   kernel32:KERNEL32.dll
 0002:00013952       _LeaveCriticalSection@4    10024952 f   kernel32:KERNEL32.dll
 0002:00013958       _EnterCriticalSection@4    10024958 f   kernel32:KERNEL32.dll
 0002:0001395e       _ResetEvent@4              1002495e f   kernel32:KERNEL32.dll
 0002:00013964       _WaitForMultipleObjects@16 10024964 f   kernel32:KERNEL32.dll
 0002:0001396a       _SetEvent@4                1002496a f   kernel32:KERNEL32.dll
 0002:00013970       _MultiByteToWideChar@24    10024970 f   kernel32:KERNEL32.dll
 0002:00013976       _OpenFile@12               10024976 f   kernel32:KERNEL32.dll
 0002:00013980       _get_idstring              10024980 f   sibshift:SibShift.obj
 0002:00013990       _get_min_array_size        10024990 f   sibshift:SibShift.obj
 0002:000139a0       _genrand_close1_open2      100249a0 f   sibshift:SibShift.obj
 0002:00013d30       _fill_array_close1_open2   10024d30 f   sibshift:SibShift.obj
 0002:00014000       _fill_array_open_close     10025000 f   sibshift:SibShift.obj
 0002:000140f0       _fill_array_close_open     100250f0 f   sibshift:SibShift.obj
 0002:000141e0       _fill_array_open_open      100251e0 f   sibshift:SibShift.obj
 0002:00014320       _init_gen_rand             10025320 f   sibshift:SibShift.obj
 0002:000145f0       _init_by_array             100255f0 f   sibshift:SibShift.obj
 0002:00014ab0       ?div@@YA?AU_ldiv_t@@JJ@Z   10025ab0 f   sibshift:SibShift.obj
 0002:00014ae0       _acosl                     10025ae0 f   sibshift:SibShift.obj
 0002:00014b00       _asinl                     10025b00 f   sibshift:SibShift.obj
 0002:00014b20       _atanl                     10025b20 f   sibshift:SibShift.obj
 0002:00014b40       _atan2l                    10025b40 f   sibshift:SibShift.obj
 0002:00014b60       _ceill                     10025b60 f   sibshift:SibShift.obj
 0002:00014b80       _cosl                      10025b80 f   sibshift:SibShift.obj
 0002:00014ba0       _coshl                     10025ba0 f   sibshift:SibShift.obj
 0002:00014bc0       _expl                      10025bc0 f   sibshift:SibShift.obj
 0002:00014be0       _fabsl                     10025be0 f   sibshift:SibShift.obj
 0002:00014c00       _floorl                    10025c00 f   sibshift:SibShift.obj
 0002:00014c20       _fmodl                     10025c20 f   sibshift:SibShift.obj
 0002:00014c40       _frexpl                    10025c40 f   sibshift:SibShift.obj
 0002:00014c60       _ldexpl                    10025c60 f   sibshift:SibShift.obj
 0002:00014c80       _logl                      10025c80 f   sibshift:SibShift.obj
 0002:00014ca0       _log10l                    10025ca0 f   sibshift:SibShift.obj
 0002:00014cc0       _modfl                     10025cc0 f   sibshift:SibShift.obj
 0002:00014cf0       _powl                      10025cf0 f   sibshift:SibShift.obj
 0002:00014d10       _sinl                      10025d10 f   sibshift:SibShift.obj
 0002:00014d30       _sinhl                     10025d30 f   sibshift:SibShift.obj
 0002:00014d50       _sqrtl                     10025d50 f   sibshift:SibShift.obj
 0002:00014d70       _tanl                      10025d70 f   sibshift:SibShift.obj
 0002:00014d90       _tanhl                     10025d90 f   sibshift:SibShift.obj
 0002:00014db0       __chgsignl                 10025db0 f   sibshift:SibShift.obj
 0002:00014dd0       __copysignl                10025dd0 f   sibshift:SibShift.obj
 0002:00014df0       _frexpf                    10025df0 f   sibshift:SibShift.obj
 0002:00014e20       _fabsf                     10025e20 f   sibshift:SibShift.obj
 0002:00014e40       _ldexpf                    10025e40 f   sibshift:SibShift.obj
 0002:00014e70       _acosf                     10025e70 f   sibshift:SibShift.obj
 0002:00014e90       _asinf                     10025e90 f   sibshift:SibShift.obj
 0002:00014eb0       _atanf                     10025eb0 f   sibshift:SibShift.obj
 0002:00014ed0       _atan2f                    10025ed0 f   sibshift:SibShift.obj
 0002:00014f00       _ceilf                     10025f00 f   sibshift:SibShift.obj
 0002:00014f20       _cosf                      10025f20 f   sibshift:SibShift.obj
 0002:00014f40       _coshf                     10025f40 f   sibshift:SibShift.obj
 0002:00014f60       _expf                      10025f60 f   sibshift:SibShift.obj
 0002:00014f80       _floorf                    10025f80 f   sibshift:SibShift.obj
 0002:00014fa0       _fmodf                     10025fa0 f   sibshift:SibShift.obj
 0002:00014fd0       _logf                      10025fd0 f   sibshift:SibShift.obj
 0002:00014ff0       _log10f                    10025ff0 f   sibshift:SibShift.obj
 0002:00015010       _modff                     10026010 f   sibshift:SibShift.obj
 0002:00015050       _powf                      10026050 f   sibshift:SibShift.obj
 0002:00015080       _sinf                      10026080 f   sibshift:SibShift.obj
 0002:000150a0       _sinhf                     100260a0 f   sibshift:SibShift.obj
 0002:000150c0       _sqrtf                     100260c0 f   sibshift:SibShift.obj
 0002:000150e0       _tanf                      100260e0 f   sibshift:SibShift.obj
 0002:00015100       _tanhf                     10026100 f   sibshift:SibShift.obj
 0002:00015120       ?abs@@YAJJ@Z               10026120 f   sibshift:SibShift.obj
 0002:00015140       ?abs@@YANN@Z               10026140 f   sibshift:SibShift.obj
 0002:00015160       ?pow@@YANNH@Z              10026160 f   sibshift:SibShift.obj
 0002:00015180       ?abs@@YAMM@Z               10026180 f   sibshift:SibShift.obj
 0002:000151a0       ?acos@@YAMM@Z              100261a0 f   sibshift:SibShift.obj
 0002:000151c0       ?asin@@YAMM@Z              100261c0 f   sibshift:SibShift.obj
 0002:000151e0       ?atan@@YAMM@Z              100261e0 f   sibshift:SibShift.obj
 0002:00015200       ?atan2@@YAMMM@Z            10026200 f   sibshift:SibShift.obj
 0002:00015220       ?ceil@@YAMM@Z              10026220 f   sibshift:SibShift.obj
 0002:00015240       ?cos@@YAMM@Z               10026240 f   sibshift:SibShift.obj
 0002:00015260       ?cosh@@YAMM@Z              10026260 f   sibshift:SibShift.obj
 0002:00015280       ?exp@@YAMM@Z               10026280 f   sibshift:SibShift.obj
 0002:000152a0       ?fabs@@YAMM@Z              100262a0 f   sibshift:SibShift.obj
 0002:000152c0       ?floor@@YAMM@Z             100262c0 f   sibshift:SibShift.obj
 0002:000152e0       ?fmod@@YAMMM@Z             100262e0 f   sibshift:SibShift.obj
 0002:00015300       ?frexp@@YAMMPAH@Z          10026300 f   sibshift:SibShift.obj
 0002:00015320       ?ldexp@@YAMMH@Z            10026320 f   sibshift:SibShift.obj
 0002:00015340       ?log@@YAMM@Z               10026340 f   sibshift:SibShift.obj
 0002:00015360       ?log10@@YAMM@Z             10026360 f   sibshift:SibShift.obj
 0002:00015380       ?modf@@YAMMPAM@Z           10026380 f   sibshift:SibShift.obj
 0002:000153a0       ?pow@@YAMMM@Z              100263a0 f   sibshift:SibShift.obj
 0002:000153c0       ?pow@@YAMMH@Z              100263c0 f   sibshift:SibShift.obj
 0002:000153e0       ?sin@@YAMM@Z               100263e0 f   sibshift:SibShift.obj
 0002:00015400       ?sinh@@YAMM@Z              10026400 f   sibshift:SibShift.obj
 0002:00015420       ?sqrt@@YAMM@Z              10026420 f   sibshift:SibShift.obj
 0002:00015440       ?tan@@YAMM@Z               10026440 f   sibshift:SibShift.obj
 0002:00015460       ?tanh@@YAMM@Z              10026460 f   sibshift:SibShift.obj
 0002:00015480       ?abs@@YAOO@Z               10026480 f   sibshift:SibShift.obj
 0002:000154a0       ?acos@@YAOO@Z              100264a0 f   sibshift:SibShift.obj
 0002:000154c0       ?asin@@YAOO@Z              100264c0 f   sibshift:SibShift.obj
 0002:000154e0       ?atan@@YAOO@Z              100264e0 f   sibshift:SibShift.obj
 0002:00015500       ?atan2@@YAOOO@Z            10026500 f   sibshift:SibShift.obj
 0002:00015520       ?ceil@@YAOO@Z              10026520 f   sibshift:SibShift.obj
 0002:00015540       ?cos@@YAOO@Z               10026540 f   sibshift:SibShift.obj
 0002:00015560       ?cosh@@YAOO@Z              10026560 f   sibshift:SibShift.obj
 0002:00015580       ?exp@@YAOO@Z               10026580 f   sibshift:SibShift.obj
 0002:000155a0       ?fabs@@YAOO@Z              100265a0 f   sibshift:SibShift.obj
 0002:000155c0       ?floor@@YAOO@Z             100265c0 f   sibshift:SibShift.obj
 0002:000155e0       ?fmod@@YAOOO@Z             100265e0 f   sibshift:SibShift.obj
 0002:00015600       ?frexp@@YAOOPAH@Z          10026600 f   sibshift:SibShift.obj
 0002:00015620       ?ldexp@@YAOOH@Z            10026620 f   sibshift:SibShift.obj
 0002:00015640       ?log@@YAOO@Z               10026640 f   sibshift:SibShift.obj
 0002:00015660       ?log10@@YAOO@Z             10026660 f   sibshift:SibShift.obj
 0002:00015680       ?modf@@YAOOPAO@Z           10026680 f   sibshift:SibShift.obj
 0002:000156a0       ?pow@@YAOOO@Z              100266a0 f   sibshift:SibShift.obj
 0002:000156c0       ?pow@@YAOOH@Z              100266c0 f   sibshift:SibShift.obj
 0002:000156e0       ?sin@@YAOO@Z               100266e0 f   sibshift:SibShift.obj
 0002:00015700       ?sinh@@YAOO@Z              10026700 f   sibshift:SibShift.obj
 0002:00015720       ?sqrt@@YAOO@Z              10026720 f   sibshift:SibShift.obj
 0002:00015740       ?tan@@YAOO@Z               10026740 f   sibshift:SibShift.obj
 0002:00015760       ?tanh@@YAOO@Z              10026760 f   sibshift:SibShift.obj
 0002:00015780       ?algoCallbackFunc@@YAHPADHPAX@Z 10026780 f   sibshift:SibShift.obj
 0002:000157b0       ??0SibShift@@QAE@XZ        100267b0 f   sibshift:SibShift.obj
 0002:000159b0       ??1SibShift@@QAE@XZ        100269b0 f   sibshift:SibShift.obj
 0002:000159d0       ?reset@SibShift@@QAEXXZ    100269d0 f   sibshift:SibShift.obj
 0002:00015ab0       ?process2@SibShift@@QAEHPAN0H@Z 10026ab0 f   sibshift:SibShift.obj
 0002:00015fb0       ?lpcfit@SibShift@@AAEXPAN000@Z 10026fb0 f   sibshift:SibShift.obj
 0002:00016150       ?lpcsynth@SibShift@@AAEXPAN0N0@Z 10027150 f   sibshift:SibShift.obj
 0002:000161d0       ?shiftfreqlpc@SibShift@@AAEXPAN00_N@Z 100271d0 f   sibshift:SibShift.obj
 0002:000164b0       ?sign@SibShift@@AAEHNN@Z   100274b0 f   sibshift:SibShift.obj
 0002:00016500       ?CalcRMS@SibShift@@AAENPBNH@Z 10027500 f   sibshift:SibShift.obj
 0002:00016530       ?ZeroCrossings@SibShift@@AAENPBNHN@Z 10027530 f   sibshift:SibShift.obj
 0002:000165d0       ?CalcSR@SibShift@@AAENPBNH@Z 100275d0 f   sibshift:SibShift.obj
 0002:00016790       ?levinson@SibShift@@AAEXPAN0H@Z 10027790 f   sibshift:SibShift.obj
 0002:00016920       ?lar2rc@SibShift@@AAENN@Z  10027920 f   sibshift:SibShift.obj
 0002:00016950       ?rc2lar@SibShift@@AAENN@Z  10027950 f   sibshift:SibShift.obj
 0002:00016990       ?poly2rc@SibShift@@AAEXPAN0H@Z 10027990 f   sibshift:SibShift.obj
 0002:00016b10       ?sw@@YAHQAPADPBDABH@Z      10027b10 f   sibshift:SibShift.obj
 0002:00016b80       ?setparams@SibShift@@QAEHPAX0@Z 10027b80 f   sibshift:SibShift.obj
 0002:00016de0       ?getdata@SibShift@@QAEPBNAAH@Z 10027de0 f   sibshift:SibShift.obj
 0002:00016e10       ?process@SibShift@@QAEHPAN0H@Z 10027e10 f   sibshift:SibShift.obj
 0002:00017b50       ??$_Pow_int@N@@YANNH@Z     10028b50 f i sibshift:SibShift.obj
 0002:00017be0       ??$_Pow_int@M@@YAMMH@Z     10028be0 f i sibshift:SibShift.obj
 0002:00017c70       ??$_Pow_int@O@@YAOOH@Z     10028c70 f i sibshift:SibShift.obj
 0002:00017d00       _kiss_fftr_alloc           10028d00 f   sibshift:kiss_fftr.obj
 0002:00017e80       _kiss_fftr                 10028e80 f   sibshift:kiss_fftr.obj
 0002:00018060       _kiss_fftri                10029060 f   sibshift:kiss_fftr.obj
 0002:00018390       ?DSPF_dp_blk_move@@YAXPBNPANH@Z 10029390 f   sibshift:DSPF.obj
 0002:000183d0       ?DSPF_dp_vecsum_sq@@YANPBNH@Z 100293d0 f   sibshift:DSPF.obj
 0002:00018420       ?DSPF_dp_fir_gen@@YAXPBN0PANHH@Z 10029420 f   sibshift:DSPF.obj
 0002:00018490       ?DSPF_dp_biquad@@YAXPAN0000H@Z 10029490 f   sibshift:DSPF.obj
 0002:00018560       ?DSPF_dp_maxval@@YANPBNH@Z 10029560 f   sibshift:DSPF.obj
 0002:000185c0       ?DSPF_dp_vecmul@@YAXPBN0PANH@Z 100295c0 f   sibshift:DSPF.obj
 0002:00018610       ?DSPF_dp_autocor@@YAXPAN0HH@Z 10029610 f   sibshift:DSPF.obj
 0002:00018690       ?DSPF_dp_iirlat@@YAXPANHPBNH00@Z 10029690 f   sibshift:DSPF.obj
 0002:00018820       _kiss_fft_alloc            10029820 f   sibshift:kiss_fft.obj
 0002:00018a00       _kiss_fft_stride           10029a00 f   sibshift:kiss_fft.obj
 0002:00019800       _kiss_fft                  1002a800 f   sibshift:kiss_fft.obj
 0002:00019820       _kiss_fft_cleanup          1002a820 f   sibshift:kiss_fft.obj
 0002:00019870       _kiss_fft_next_fast_size   1002a870 f   sibshift:kiss_fft.obj
 0002:00019d36       ?c_str@?$basic_string@DU?$char_traits@D@std@@V?$allocator@D@2@@std@@QBEPBDXZ 1002ad36 f   msvcprtd:MSVCP80D.dll
 0002:00019d3c       ?_Debug_message@std@@YAXPB_W0I@Z 1002ad3c f   msvcprtd:MSVCP80D.dll
 0002:00019d42       ??4?$basic_string@DU?$char_traits@D@std@@V?$allocator@D@2@@std@@QAEAAV01@ABV01@@Z 1002ad42 f   msvcprtd:MSVCP80D.dll
 0002:00019d48       ??1?$basic_string@DU?$char_traits@D@std@@V?$allocator@D@2@@std@@QAE@XZ 1002ad48 f   msvcprtd:MSVCP80D.dll
 0002:00019d4e       ??0?$basic_string@DU?$char_traits@D@std@@V?$allocator@D@2@@std@@QAE@U_Has_debug_it@01@@Z 1002ad4e f   msvcprtd:MSVCP80D.dll
 0002:00019d54       ?_Orphan_all@_Container_base@std@@QBEXXZ 1002ad54 f   msvcprtd:MSVCP80D.dll
 0002:00019d5a       ??1_Container_base@std@@QAE@XZ 1002ad5a f   msvcprtd:MSVCP80D.dll
 0002:00019d60       ??0_Container_base@std@@QAE@XZ 1002ad60 f   msvcprtd:MSVCP80D.dll
 0002:00019d66       ??1_Lockit@std@@QAE@XZ     1002ad66 f   msvcprtd:MSVCP80D.dll
 0002:00019d6c       ??0_Lockit@std@@QAE@H@Z    1002ad6c f   msvcprtd:MSVCP80D.dll
 0002:00019d72       ??0?$basic_string@DU?$char_traits@D@std@@V?$allocator@D@2@@std@@QAE@PBD@Z 1002ad72 f   msvcprtd:MSVCP80D.dll
 0002:00019d78       ??0?$basic_string@DU?$char_traits@D@std@@V?$allocator@D@2@@std@@QAE@ABV01@@Z 1002ad78 f   msvcprtd:MSVCP80D.dll
 0002:00019d7e       ??$?6DU?$char_traits@D@std@@V?$allocator@D@1@@std@@YAAAV?$basic_ostream@DU?$char_traits@D@std@@@0@AAV10@ABV?$basic_string@DU?$char_traits@D@std@@V?$allocator@D@2@@0@@Z 1002ad7e f   msvcprtd:MSVCP80D.dll
 0002:00019d84       ?append@?$basic_string@DU?$char_traits@D@std@@V?$allocator@D@2@@std@@QAEAAV12@PBD@Z 1002ad84 f   msvcprtd:MSVCP80D.dll
 0002:00019d8a       ?append@?$basic_string@DU?$char_traits@D@std@@V?$allocator@D@2@@std@@QAEAAV12@ABV12@@Z 1002ad8a f   msvcprtd:MSVCP80D.dll
 0002:00019d90       ?append@?$basic_string@DU?$char_traits@D@std@@V?$allocator@D@2@@std@@QAEAAV12@PBDI@Z 1002ad90 f   msvcprtd:MSVCP80D.dll
 0002:00019d96       ?erase@?$basic_string@DU?$char_traits@D@std@@V?$allocator@D@2@@std@@QAEAAV12@II@Z 1002ad96 f   msvcprtd:MSVCP80D.dll
 0002:00019d9c       ??6?$basic_ostream@DU?$char_traits@D@std@@@std@@QAEAAV01@P6AAAV01@AAV01@@Z@Z 1002ad9c f   msvcprtd:MSVCP80D.dll
 0002:00019da2       ?endl@std@@YAAAV?$basic_ostream@DU?$char_traits@D@std@@@1@AAV21@@Z 1002ada2 f   msvcprtd:MSVCP80D.dll
 0002:00019da8       ?width@ios_base@std@@QAEHH@Z 1002ada8 f   msvcprtd:MSVCP80D.dll
 0002:00019dae       ?setstate@?$basic_ios@DU?$char_traits@D@std@@@std@@QAEXH_N@Z 1002adae f   msvcprtd:MSVCP80D.dll
 0002:00019db4       ?eq_int_type@?$char_traits@D@std@@SA_NABH0@Z 1002adb4 f   msvcprtd:MSVCP80D.dll
 0002:00019dba       ?eof@?$char_traits@D@std@@SAHXZ 1002adba f   msvcprtd:MSVCP80D.dll
 0002:00019dc0       ?sputc@?$basic_streambuf@DU?$char_traits@D@std@@@std@@QAEHD@Z 1002adc0 f   msvcprtd:MSVCP80D.dll
 0002:00019dc6       ?rdbuf@?$basic_ios@DU?$char_traits@D@std@@@std@@QBEPAV?$basic_streambuf@DU?$char_traits@D@std@@@2@XZ 1002adc6 f   msvcprtd:MSVCP80D.dll
 0002:00019dcc       ?fill@?$basic_ios@DU?$char_traits@D@std@@@std@@QBEDXZ 1002adcc f   msvcprtd:MSVCP80D.dll
 0002:00019dd2       ?flags@ios_base@std@@QBEHXZ 1002add2 f   msvcprtd:MSVCP80D.dll
 0002:00019dd8       ?width@ios_base@std@@QBEHXZ 1002add8 f   msvcprtd:MSVCP80D.dll
 0002:00019dde       ?flush@?$basic_ostream@DU?$char_traits@D@std@@@std@@QAEAAV12@XZ 1002adde f   msvcprtd:MSVCP80D.dll
 0002:00019de4       ?tie@?$basic_ios@DU?$char_traits@D@std@@@std@@QBEPAV?$basic_ostream@DU?$char_traits@D@std@@@2@XZ 1002ade4 f   msvcprtd:MSVCP80D.dll
 0002:00019dea       ?good@ios_base@std@@QBE_NXZ 1002adea f   msvcprtd:MSVCP80D.dll
 0002:00019df0       ?_Osfx@?$basic_ostream@DU?$char_traits@D@std@@@std@@QAEXXZ 1002adf0 f   msvcprtd:MSVCP80D.dll
 0002:00019df6       ?uncaught_exception@std@@YA_NXZ 1002adf6 f   msvcprtd:MSVCP80D.dll
 0002:00019dfc       ?_Lock@?$basic_streambuf@DU?$char_traits@D@std@@@std@@QAEXXZ 1002adfc f   msvcprtd:MSVCP80D.dll
 0002:00019e02       ?_Unlock@?$basic_streambuf@DU?$char_traits@D@std@@@std@@QAEXXZ 1002ae02 f   msvcprtd:MSVCP80D.dll
 0002:00019e08       ?sputn@?$basic_streambuf@DU?$char_traits@D@std@@@std@@QAEHPBDH@Z 1002ae08 f   msvcprtd:MSVCP80D.dll
 0002:00019e0e       ?length@?$char_traits@D@std@@SAIPBD@Z 1002ae0e f   msvcprtd:MSVCP80D.dll
 0002:00019e14       _floor                     1002ae14 f   MSVCRTD:MSVCR80D.dll
 0002:00019e20       __onexit                   1002ae20 f   MSVCRTD:atonexit.obj
 0002:00019f70       _atexit                    1002af70 f   MSVCRTD:atonexit.obj
 0002:00019f90       __RTC_CheckEsp             1002af90 f   MSVCRTD:stack.obj
 0002:00019fc0       @_RTC_CheckStackVars@8     1002afc0 f   MSVCRTD:stack.obj
 0002:0001a040       @_RTC_AllocaHelper@12      1002b040 f   MSVCRTD:stack.obj
 0002:0001a080       @_RTC_CheckStackVars2@12   1002b080 f   MSVCRTD:stack.obj
 0002:0001a190       __ftol2_sse                1002b190 f   MSVCRTD:ftol2.obj
 0002:0001a199       __ftol2_pentium4           1002b199 f   MSVCRTD:ftol2.obj
 0002:0001a1ac       __ftol2_sse_excpt          1002b1ac f   MSVCRTD:ftol2.obj
 0002:0001a1c6       __ftol2                    1002b1c6 f   MSVCRTD:ftol2.obj
 0002:0001a270       __RTC_InitBase             1002b270 f   MSVCRTD:init.obj
 0002:0001a2b0       __RTC_Shutdown             1002b2b0 f   MSVCRTD:init.obj
 0002:0001a2c8       __invalid_parameter        1002b2c8 f   MSVCRTD:MSVCR80D.dll
 0002:0001a2ce       __CrtDbgReportW            1002b2ce f   MSVCRTD:MSVCR80D.dll
 0002:0001a380       __CRT_INIT@12              1002b380 f   MSVCRTD:crtdll.obj
 0002:0001a650       _NtCurrentTeb              1002b650 f i MSVCRTD:crtdll.obj
 0002:0001a660       __DllMainCRTStartup@12     1002b660 f   MSVCRTD:crtdll.obj
 0002:0001a8c0       ??3@YAXPAX@Z               1002b8c0 f   MSVCRTD:MSVCR80D.dll
 0002:0001a8c6       ??2@YAPAXI@Z               1002b8c6 f   MSVCRTD:MSVCR80D.dll
 0002:0001a8cc       ___CxxFrameHandler3        1002b8cc f   MSVCRTD:MSVCR80D.dll
 0002:0001a8e0       @__security_check_cookie@4 1002b8e0 f   MSVCRTD:secchk.obj
 0002:0001a900       ??0type_info@@AAE@ABV0@@Z  1002b900 f   MSVCRTD:ti_inst.obj
 0002:0001a920       ??_Etype_info@@UAEPAXI@Z   1002b920 f i MSVCRTD:ti_inst.obj
 0002:0001a9b0       ??4type_info@@AAEAAV0@ABV0@@Z 1002b9b0 f   MSVCRTD:ti_inst.obj
 0002:0001a9c4       __CxxThrowException@8      1002b9c4 f   MSVCRTD:MSVCR80D.dll
 0002:0001a9ca       ??0exception@std@@QAE@ABV01@@Z 1002b9ca f   MSVCRTD:MSVCR80D.dll
 0002:0001a9d0       ??1exception@std@@UAE@XZ   1002b9d0 f   MSVCRTD:MSVCR80D.dll
 0002:0001a9d6       ??0exception@std@@QAE@XZ   1002b9d6 f   MSVCRTD:MSVCR80D.dll
 0002:0001a9dc       ??0exception@std@@QAE@ABQBD@Z 1002b9dc f   MSVCRTD:MSVCR80D.dll
 0002:0001a9e2       ?what@exception@std@@UBEPBDXZ 1002b9e2 f   MSVCRTD:MSVCR80D.dll
 0002:0001a9e8       _memmove_s                 1002b9e8 f   MSVCRTD:MSVCR80D.dll
 0002:0001a9ee       __purecall                 1002b9ee f   MSVCRTD:MSVCR80D.dll
 0002:0001aa00       ??_L@YGXPAXIHP6EX0@Z1@Z    1002ba00 f   MSVCRTD:ehvecctr.obj
 0002:0001aae0       ??_M@YGXPAXIHP6EX0@Z@Z     1002bae0 f   MSVCRTD:ehvecdtr.obj
 0002:0001abc0       ?__ArrayUnwind@@YGXPAXIHP6EX0@Z@Z 1002bbc0 f   MSVCRTD:ehvecdtr.obj
 0002:0001aca8       _sprintf                   1002bca8 f   MSVCRTD:MSVCR80D.dll
 0002:0001acae       _strlen                    1002bcae f   MSVCRTD:MSVCR80D.dll
 0002:0001acb4       _fprintf                   1002bcb4 f   MSVCRTD:MSVCR80D.dll
 0002:0001acba       ___iob_func                1002bcba f   MSVCRTD:MSVCR80D.dll
 0002:0001acc0       _malloc                    1002bcc0 f   MSVCRTD:MSVCR80D.dll
 0002:0001acc6       _free                      1002bcc6 f   MSVCRTD:MSVCR80D.dll
 0002:0001accc       _calloc                    1002bccc f   MSVCRTD:MSVCR80D.dll
 0002:0001acd2       _pow                       1002bcd2 f   MSVCRTD:MSVCR80D.dll
 0002:0001acd8       _log10                     1002bcd8 f   MSVCRTD:MSVCR80D.dll
 0002:0001acde       _memcpy                    1002bcde f   MSVCRTD:MSVCR80D.dll
 0002:0001ace4       _memset                    1002bce4 f   MSVCRTD:MSVCR80D.dll
 0002:0001acea       _printf                    1002bcea f   MSVCRTD:MSVCR80D.dll
 0002:0001acf0       _strcmp                    1002bcf0 f   MSVCRTD:MSVCR80D.dll
 0002:0001acf6       _strcpy                    1002bcf6 f   MSVCRTD:MSVCR80D.dll
 0002:0001acfc       __wassert                  1002bcfc f   MSVCRTD:MSVCR80D.dll
 0002:0001ad10       __allshl                   1002bd10 f   MSVCRTD:llshl.obj
 0002:0001ad40       __aullshr                  1002bd40 f   MSVCRTD:ullshr.obj
 0002:0001ad66       _ldiv                      1002bd66 f   MSVCRTD:MSVCR80D.dll
 0002:0001ad6c       _acos                      1002bd6c f   MSVCRTD:MSVCR80D.dll
 0002:0001ad72       _asin                      1002bd72 f   MSVCRTD:MSVCR80D.dll
 0002:0001ad78       _atan                      1002bd78 f   MSVCRTD:MSVCR80D.dll
 0002:0001ad7e       _atan2                     1002bd7e f   MSVCRTD:MSVCR80D.dll
 0002:0001ad84       _ceil                      1002bd84 f   MSVCRTD:MSVCR80D.dll
 0002:0001ad8a       _cos                       1002bd8a f   MSVCRTD:MSVCR80D.dll
 0002:0001ad90       _cosh                      1002bd90 f   MSVCRTD:MSVCR80D.dll
 0002:0001ad96       _exp                       1002bd96 f   MSVCRTD:MSVCR80D.dll
 0002:0001ad9c       _fabs                      1002bd9c f   MSVCRTD:MSVCR80D.dll
 0002:0001ada2       _fmod                      1002bda2 f   MSVCRTD:MSVCR80D.dll
 0002:0001ada8       _frexp                     1002bda8 f   MSVCRTD:MSVCR80D.dll
 0002:0001adae       _ldexp                     1002bdae f   MSVCRTD:MSVCR80D.dll
 0002:0001adb4       _log                       1002bdb4 f   MSVCRTD:MSVCR80D.dll
 0002:0001adba       _modf                      1002bdba f   MSVCRTD:MSVCR80D.dll
 0002:0001adc0       _sin                       1002bdc0 f   MSVCRTD:MSVCR80D.dll
 0002:0001adc6       _sinh                      1002bdc6 f   MSVCRTD:MSVCR80D.dll
 0002:0001adcc       _sqrt                      1002bdcc f   MSVCRTD:MSVCR80D.dll
 0002:0001add2       _tan                       1002bdd2 f   MSVCRTD:MSVCR80D.dll
 0002:0001add8       _tanh                      1002bdd8 f   MSVCRTD:MSVCR80D.dll
 0002:0001adde       __chgsign                  1002bdde f   MSVCRTD:MSVCR80D.dll
 0002:0001ade4       __copysign                 1002bde4 f   MSVCRTD:MSVCR80D.dll
 0002:0001adea       _labs                      1002bdea f   MSVCRTD:MSVCR80D.dll
 0002:0001adf0       _rand                      1002bdf0 f   MSVCRTD:MSVCR80D.dll
 0002:0001adf6       _exit                      1002bdf6 f   MSVCRTD:MSVCR80D.dll
 0002:0001adfc       __unlock                   1002bdfc f   MSVCRTD:MSVCR80D.dll
 0002:0001ae02       ___dllonexit               1002be02 f   MSVCRTD:MSVCR80D.dll
 0002:0001ae08       __encode_pointer           1002be08 f   MSVCRTD:MSVCR80D.dll
 0002:0001ae0e       __lock                     1002be0e f   MSVCRTD:MSVCR80D.dll
 0002:0001ae14       __decode_pointer           1002be14 f   MSVCRTD:MSVCR80D.dll
 0002:0001ae20       __except_handler4          1002be20 f   MSVCRTD:chandler4gs.obj
 0002:0001ae50       _DebuggerKnownHandle       1002be50 f   MSVCRTD:error.obj
 0002:0001af20       ?_RTC_Failure@@YAXPAXH@Z   1002bf20 f   MSVCRTD:error.obj
 0002:0001b320       ?_RTC_StackFailure@@YAXPAXPBD@Z 1002c320 f   MSVCRTD:error.obj
 0002:0001b490       ?_RTC_AllocaFailure@@YAXPAXPAU_RTC_ALLOCA_NODE@@H@Z 1002c490 f   MSVCRTD:error.obj
 0002:0001b6a0       __RTC_UninitUse            1002c6a0 f   MSVCRTD:error.obj
 0002:0001b7f0       __get_sse2_info            1002c7f0 f   MSVCRTD:cpu_disp.obj
 0002:0001b960       ___sse2_available_init     1002c960 f   MSVCRTD:cpu_disp.obj
 0002:0001b980       __RTC_NumErrors            1002c980 f   MSVCRTD:userapi.obj
 0002:0001b990       __RTC_GetErrDesc           1002c990 f   MSVCRTD:userapi.obj
 0002:0001b9b0       __RTC_SetErrorType         1002c9b0 f   MSVCRTD:userapi.obj
 0002:0001b9e0       __RTC_SetErrorFunc         1002c9e0 f   MSVCRTD:userapi.obj
 0002:0001ba10       __RTC_SetErrorFuncW        1002ca10 f   MSVCRTD:userapi.obj
 0002:0001ba40       ?_RTC_GetErrorFunc@@YAP6AHHPBDH00ZZPBX@Z 1002ca40 f   MSVCRTD:userapi.obj
 0002:0001ba50       ?_RTC_GetErrorFuncW@@YAP6AHHPB_WH00ZZPBX@Z 1002ca50 f   MSVCRTD:userapi.obj
 0002:0001ba56       __CRT_RTC_INITW            1002ca56 f   MSVCRTD:MSVCR80D.dll
 0002:0001ba60       ___clean_type_info_names   1002ca60 f   MSVCRTD:tncleanup.obj
 0002:0001ba80       __RTC_Initialize           1002ca80 f   MSVCRTD:initsect.obj
 0002:0001bab0       __RTC_Terminate            1002cab0 f   MSVCRTD:initsect.obj
 0002:0001bade       __malloc_dbg               1002cade f   MSVCRTD:MSVCR80D.dll
 0002:0001bae4       __free_dbg                 1002cae4 f   MSVCRTD:MSVCR80D.dll
 0002:0001baea       __encoded_null             1002caea f   MSVCRTD:MSVCR80D.dll
 0002:0001baf0       __CrtSetCheckCount         1002caf0 f   MSVCRTD:MSVCR80D.dll
 0002:0001bb00       __ValidateImageBase        1002cb00 f   MSVCRTD:pesect.obj
 0002:0001bb80       __FindPESection            1002cb80 f   MSVCRTD:pesect.obj
 0002:0001bc10       __IsNonwritableInCurrentImage 1002cc10 f   MSVCRTD:pesect.obj
 0002:0001bd64       __initterm                 1002cd64 f   MSVCRTD:MSVCR80D.dll
 0002:0001bd6a       __initterm_e               1002cd6a f   MSVCRTD:MSVCR80D.dll
 0002:0001bd70       __amsg_exit                1002cd70 f   MSVCRTD:MSVCR80D.dll
 0002:0001bd80       ___security_init_cookie    1002cd80 f   MSVCRTD:gs_support.obj
 0002:0001be90       ___CppXcptFilter           1002ce90 f   MSVCRTD:MSVCR80D.dll
 0002:0001bea0       _DllMain@12                1002cea0 f   MSVCRTD:dllmain.obj
 0002:0001bed0       ___report_gsfailure        1002ced0 f   MSVCRTD:gs_report.obj
 0002:0001c020       ?terminate@@YAXXZ          1002d020 f   MSVCRTD:MSVCR80D.dll
 0002:0001c026       __except_handler4_common   1002d026 f   MSVCRTD:MSVCR80D.dll
 0002:0001c030       ?_RTC_GetSrcLine@@YAHPAEPA_WKPAH1K@Z 1002d030 f   MSVCRTD:pdblkup.obj
 0002:0001c5dc       ___clean_type_info_names_internal 1002d5dc f   MSVCRTD:MSVCR80D.dll
 0002:0001c5e2       __crt_debugger_hook        1002d5e2 f   MSVCRTD:MSVCR80D.dll
 0002:0001c5e8       ??1type_info@@UAE@XZ       1002d5e8 f   MSVCRTD:MSVCR80D.dll
 0002:0001c5e8       ?_type_info_dtor_internal_method@type_info@@QAEXXZ 1002d5e8 f   MSVCRTD:MSVCR80D.dll
 0002:0001c5ee       _InterlockedExchange@8     1002d5ee f   kernel32:KERNEL32.dll
 0002:0001c5f4       _Sleep@4                   1002d5f4 f   kernel32:KERNEL32.dll
 0002:0001c5fa       _InterlockedCompareExchange@12 1002d5fa f   kernel32:KERNEL32.dll
 0002:0001c600       _RaiseException@16         1002d600 f   kernel32:KERNEL32.dll
 0002:0001c606       _DebugBreak@0              1002d606 f   kernel32:KERNEL32.dll
 0002:0001c60c       _WideCharToMultiByte@32    1002d60c f   kernel32:KERNEL32.dll
 0002:0001c612       _IsDebuggerPresent@0       1002d612 f   kernel32:KERNEL32.dll
 0002:0001c618       _lstrlenA@4                1002d618 f   kernel32:KERNEL32.dll
 0002:0001c61e       _GetProcAddress@8          1002d61e f   kernel32:KERNEL32.dll
 0002:0001c624       _LoadLibraryA@4            1002d624 f   kernel32:KERNEL32.dll
 0002:0001c62a       _QueryPerformanceCounter@4 1002d62a f   kernel32:KERNEL32.dll
 0002:0001c630       _GetTickCount@0            1002d630 f   kernel32:KERNEL32.dll
 0002:0001c636       _GetCurrentThreadId@0      1002d636 f   kernel32:KERNEL32.dll
 0002:0001c63c       _GetCurrentProcessId@0     1002d63c f   kernel32:KERNEL32.dll
 0002:0001c642       _GetSystemTimeAsFileTime@4 1002d642 f   kernel32:KERNEL32.dll
 0002:0001c648       _DisableThreadLibraryCalls@4 1002d648 f   kernel32:KERNEL32.dll
 0002:0001c64e       _TerminateProcess@8        1002d64e f   kernel32:KERNEL32.dll
 0002:0001c654       _GetCurrentProcess@0       1002d654 f   kernel32:KERNEL32.dll
 0002:0001c65a       _UnhandledExceptionFilter@4 1002d65a f   kernel32:KERNEL32.dll
 0002:0001c660       _SetUnhandledExceptionFilter@4 1002d660 f   kernel32:KERNEL32.dll
 0002:0001c666       _HeapFree@12               1002d666 f   kernel32:KERNEL32.dll
 0002:0001c66c       _HeapAlloc@12              1002d66c f   kernel32:KERNEL32.dll
 0002:0001c672       _GetProcessHeap@0          1002d672 f   kernel32:KERNEL32.dll
 0002:0001c678       _GetModuleFileNameW@12     1002d678 f   kernel32:KERNEL32.dll
 0002:0001c67e       _VirtualQuery@12           1002d67e f   kernel32:KERNEL32.dll
 0002:0001c684       _FreeLibrary@4             1002d684 f   kernel32:KERNEL32.dll
 0003:00000000       ___xc_a                    10033000     MSVCRTD:cinitexe.obj
 0003:00000208       ___xc_z                    10033208     MSVCRTD:cinitexe.obj
 0003:0000030c       ___xi_a                    1003330c     MSVCRTD:cinitexe.obj
 0003:00000618       ___xi_z                    10033618     MSVCRTD:cinitexe.obj
 0003:0000073c       ??_C@_0P@GHFPNOJB@bad?5allocation?$AA@ 1003373c     mexLibrary.obj
 0003:00000750       ?collate@?$_Locbase@H@std@@2HB 10033750     mexLibrary.obj
 0003:00000754       ?ctype@?$_Locbase@H@std@@2HB 10033754     mexLibrary.obj
 0003:00000758       ?monetary@?$_Locbase@H@std@@2HB 10033758     mexLibrary.obj
 0003:0000075c       ?numeric@?$_Locbase@H@std@@2HB 1003375c     mexLibrary.obj
 0003:00000760       ?time@?$_Locbase@H@std@@2HB 10033760     mexLibrary.obj
 0003:00000764       ?messages@?$_Locbase@H@std@@2HB 10033764     mexLibrary.obj
 0003:00000768       ?all@?$_Locbase@H@std@@2HB 10033768     mexLibrary.obj
 0003:0000076c       ?none@?$_Locbase@H@std@@2HB 1003376c     mexLibrary.obj
 0003:00000770       ?skipws@?$_Iosb@H@std@@2W4_Fmtflags@12@B 10033770     mexLibrary.obj
 0003:00000774       ?unitbuf@?$_Iosb@H@std@@2W4_Fmtflags@12@B 10033774     mexLibrary.obj
 0003:00000778       ?uppercase@?$_Iosb@H@std@@2W4_Fmtflags@12@B 10033778     mexLibrary.obj
 0003:0000077c       ?showbase@?$_Iosb@H@std@@2W4_Fmtflags@12@B 1003377c     mexLibrary.obj
 0003:00000780       ?showpoint@?$_Iosb@H@std@@2W4_Fmtflags@12@B 10033780     mexLibrary.obj
 0003:00000784       ?showpos@?$_Iosb@H@std@@2W4_Fmtflags@12@B 10033784     mexLibrary.obj
 0003:00000788       ?left@?$_Iosb@H@std@@2W4_Fmtflags@12@B 10033788     mexLibrary.obj
 0003:0000078c       ?right@?$_Iosb@H@std@@2W4_Fmtflags@12@B 1003378c     mexLibrary.obj
 0003:00000790       ?internal@?$_Iosb@H@std@@2W4_Fmtflags@12@B 10033790     mexLibrary.obj
 0003:00000794       ?dec@?$_Iosb@H@std@@2W4_Fmtflags@12@B 10033794     mexLibrary.obj
 0003:00000798       ?oct@?$_Iosb@H@std@@2W4_Fmtflags@12@B 10033798     mexLibrary.obj
 0003:0000079c       ?hex@?$_Iosb@H@std@@2W4_Fmtflags@12@B 1003379c     mexLibrary.obj
 0003:000007a0       ?scientific@?$_Iosb@H@std@@2W4_Fmtflags@12@B 100337a0     mexLibrary.obj
 0003:000007a4       ?fixed@?$_Iosb@H@std@@2W4_Fmtflags@12@B 100337a4     mexLibrary.obj
 0003:000007a8       ?boolalpha@?$_Iosb@H@std@@2W4_Fmtflags@12@B 100337a8     mexLibrary.obj
 0003:000007ac       ?_Stdio@?$_Iosb@H@std@@2W4_Fmtflags@12@B 100337ac     mexLibrary.obj
 0003:000007b0       ?adjustfield@?$_Iosb@H@std@@2W4_Fmtflags@12@B 100337b0     mexLibrary.obj
 0003:000007b4       ?basefield@?$_Iosb@H@std@@2W4_Fmtflags@12@B 100337b4     mexLibrary.obj
 0003:000007b8       ?floatfield@?$_Iosb@H@std@@2W4_Fmtflags@12@B 100337b8     mexLibrary.obj
 0003:000007bc       ?goodbit@?$_Iosb@H@std@@2W4_Iostate@12@B 100337bc     mexLibrary.obj
 0003:000007c0       ?eofbit@?$_Iosb@H@std@@2W4_Iostate@12@B 100337c0     mexLibrary.obj
 0003:000007c4       ?failbit@?$_Iosb@H@std@@2W4_Iostate@12@B 100337c4     mexLibrary.obj
 0003:000007c8       ?badbit@?$_Iosb@H@std@@2W4_Iostate@12@B 100337c8     mexLibrary.obj
 0003:000007cc       ?_Hardfail@?$_Iosb@H@std@@2W4_Iostate@12@B 100337cc     mexLibrary.obj
 0003:000007d0       ?in@?$_Iosb@H@std@@2W4_Openmode@12@B 100337d0     mexLibrary.obj
 0003:000007d4       ?out@?$_Iosb@H@std@@2W4_Openmode@12@B 100337d4     mexLibrary.obj
 0003:000007d8       ?ate@?$_Iosb@H@std@@2W4_Openmode@12@B 100337d8     mexLibrary.obj
 0003:000007dc       ?app@?$_Iosb@H@std@@2W4_Openmode@12@B 100337dc     mexLibrary.obj
 0003:000007e0       ?trunc@?$_Iosb@H@std@@2W4_Openmode@12@B 100337e0     mexLibrary.obj
 0003:000007e4       ?_Nocreate@?$_Iosb@H@std@@2W4_Openmode@12@B 100337e4     mexLibrary.obj
 0003:000007e8       ?_Noreplace@?$_Iosb@H@std@@2W4_Openmode@12@B 100337e8     mexLibrary.obj
 0003:000007ec       ?binary@?$_Iosb@H@std@@2W4_Openmode@12@B 100337ec     mexLibrary.obj
 0003:000007f0       ?beg@?$_Iosb@H@std@@2W4_Seekdir@12@B 100337f0     mexLibrary.obj
 0003:000007f4       ?cur@?$_Iosb@H@std@@2W4_Seekdir@12@B 100337f4     mexLibrary.obj
 0003:000007f8       ?end@?$_Iosb@H@std@@2W4_Seekdir@12@B 100337f8     mexLibrary.obj
 0003:000007fc       ??_C@_0BF@GKFBFFNG@Action?5Unknown?3?5?5?$CFd?6?$AA@ 100337fc     mexLibrary.obj
 0003:00000818       ??_C@_0BA@ONFOMOMA@Resetting?5algo?6?$AA@ 10033818     mexLibrary.obj
 0003:0000082c       ??_C@_09BMHFKMJC@Size?3?5?$CFd?6?$AA@ 1003382c     mexLibrary.obj
 0003:00000838       ??_C@_0BK@DJNKEKED@nrhs?5?$DN?$DN?5?$CFd?5?$CIshould?5be?53?$CJ?6?$AA@ 10033838     mexLibrary.obj
 0003:00000858       ??_C@_0BD@GIGMGGPL@Setting?5param?3?5?$CFs?6?$AA@ 10033858     mexLibrary.obj
 0003:00000870       ??_C@_0N@NDAELEBH@Not?5started?6?$AA@ 10033870     mexLibrary.obj
 0003:00000880       ??_C@_0BB@GMJOFFEL@Action?5End?3?5?5?$CFd?6?$AA@ 10033880     mexLibrary.obj
 0003:00000894       ??_C@_0BB@NJLAAOGA@Already?5started?6?$AA@ 10033894     mexLibrary.obj
 0003:000008a8       ??_C@_0BD@IGIPIELL@Action?5Start?3?5?5?$CFd?6?$AA@ 100338a8     mexLibrary.obj
 0003:000008c0       ??_C@_0O@PHCIEDAN@?$FLO?$FN?3?5?$CFd?5?3?5?$CFs?6?$AA@ 100338c0     mexLibrary.obj
 0003:000008d0       ??_C@_0O@FHMNJMNA@?$FLI?$FN?3?5?$CFd?5?3?5?$CFs?6?$AA@ 100338d0     mexLibrary.obj
 0003:000008e0       ??_C@_0P@FKNMBJBM@Information?3?5?6?$AA@ 100338e0     mexLibrary.obj
 0003:000008f4       ??_C@_1CK@POGJDOKA@?$AA?$CI?$AA?$CC?$AA_?$AAP?$AAo?$AAs?$AA?5?$AA?$DM?$AA?5?$AAs?$AAi?$AAz?$AAe?$AA?$CI?$AA?$CJ?$AA?$CC?$AA?0?$AA?5?$AA0?$AA?$CJ?$AA?$AA@ 100338f4     mexLibrary.obj
 0003:00000928       ??_C@_1BO@MEPPHOO@?$AA?$CC?$AAo?$AAu?$AAt?$AA?5?$AAo?$AAf?$AA?5?$AAr?$AAa?$AAn?$AAg?$AAe?$AA?$CC?$AA?$AA@ 10033928     mexLibrary.obj
 0003:00000950       ??_C@_1LO@DEKNLMI@?$AAs?$AAt?$AAd?$AA?3?$AA?3?$AAv?$AAe?$AAc?$AAt?$AAo?$AAr?$AA?$DM?$AAs?$AAt?$AAr?$AAu?$AAc?$AAt?$AA?5?$AAA?$AAu?$AAd?$AAi?$AAo?$AAD?$AAe?$AAv?$AAi?$AAc?$AAe?$AAI?$AAn@ 10033950     mexLibrary.obj
 0003:00000a38       ??_C@_1FG@CMLDHNON@?$AA?$CI?$AA?$CC?$AAS?$AAt?$AAa?$AAn?$AAd?$AAa?$AAr?$AAd?$AA?5?$AAC?$AA?$CL?$AA?$CL?$AA?5?$AAL?$AAi?$AAb?$AAr?$AAa?$AAr?$AAi?$AAe?$AAs?$AA?5?$AAO?$AAu?$AAt?$AA?5?$AAo?$AAf?$AA?5@ 10033a38     mexLibrary.obj
 0003:00000aa0       ??_C@_1DM@LHGCHCBA@?$AAv?$AAe?$AAc?$AAt?$AAo?$AAr?$AA?5?$AAs?$AAu?$AAb?$AAs?$AAc?$AAr?$AAi?$AAp?$AAt?$AA?5?$AAo?$AAu?$AAt?$AA?5?$AAo?$AAf?$AA?5?$AAr?$AAa?$AAn?$AAg?$AAe?$AA?$AA@ 10033aa0     mexLibrary.obj
 0003:00000ae8       ??_C@_1HK@HNILGGDB@?$AAc?$AA?3?$AA?2?$AAp?$AAr?$AAo?$AAg?$AAr?$AAa?$AAm?$AA?5?$AAf?$AAi?$AAl?$AAe?$AAs?$AA?2?$AAm?$AAi?$AAc?$AAr?$AAo?$AAs?$AAo?$AAf?$AAt?$AA?5?$AAv?$AAi?$AAs?$AAu?$AAa@ 10033ae8     mexLibrary.obj
 0003:00000b90       ??_C@_1HK@LEOMNKFK@?$AAC?$AA?3?$AA?2?$AAP?$AAr?$AAo?$AAg?$AAr?$AAa?$AAm?$AA?5?$AAF?$AAi?$AAl?$AAe?$AAs?$AA?2?$AAM?$AAi?$AAc?$AAr?$AAo?$AAs?$AAo?$AAf?$AAt?$AA?5?$AAV?$AAi?$AAs?$AAu?$AAa@ 10033b90     audioIO:audioIO.obj
 0003:00000c24       ??_C@_1DC@POOIKBAO@?$AAI?$AAT?$AAE?$AAR?$AAA?$AAT?$AAO?$AAR?$AA?5?$AAL?$AAI?$AAS?$AAT?$AA?5?$AAC?$AAO?$AAR?$AAR?$AAU?$AAP?$AAT?$AAE?$AAD?$AA?$CB?$AA?$AA@ 10033c24     audioIO:audioIO.obj
 0003:00000c60       ??_C@_1HO@DIMJPEED@?$AAC?$AA?3?$AA?2?$AAP?$AAr?$AAo?$AAg?$AAr?$AAa?$AAm?$AA?5?$AAF?$AAi?$AAl?$AAe?$AAs?$AA?2?$AAM?$AAi?$AAc?$AAr?$AAo?$AAs?$AAo?$AAf?$AAt?$AA?5?$AAV?$AAi?$AAs?$AAu?$AAa@ 10033c60     audioIO:audioIO.obj
 0003:00000cf8       ??_C@_1EI@HGIDLLCM@?$AAv?$AAe?$AAc?$AAt?$AAo?$AAr?$AA?5?$AAe?$AAr?$AAa?$AAs?$AAe?$AA?5?$AAi?$AAt?$AAe?$AAr?$AAa?$AAt?$AAo?$AAr?$AA?5?$AAo?$AAu?$AAt?$AAs?$AAi?$AAd?$AAe?$AA?5?$AAr?$AAa@ 10033cf8     audioIO:audioIO.obj
 0003:00000d50       ??_C@_0BD@OLBABOEK@vector?$DMT?$DO?5too?5long?$AA@ 10033d50     audioIO:audioIO.obj
 0003:00000d6c       ??_7length_error@std@@6B@  10033d6c     audioIO:audioIO.obj
 0003:00000d7c       ??_7logic_error@std@@6B@   10033d7c     audioIO:audioIO.obj
 0003:00000d88       ??_C@_1EK@EEHFMKDC@?$AAv?$AAe?$AAc?$AAt?$AAo?$AAr?$AA?5?$AAi?$AAn?$AAs?$AAe?$AAr?$AAt?$AA?5?$AAi?$AAt?$AAe?$AAr?$AAa?$AAt?$AAo?$AAr?$AA?5?$AAo?$AAu?$AAt?$AAs?$AAi?$AAd?$AAe?$AA?5?$AAr@ 10033d88     audioIO:audioIO.obj
 0003:00000de0       ??_C@_1CG@JNLFBNGN@?$AA?$CC?$AAi?$AAn?$AAv?$AAa?$AAl?$AAi?$AAd?$AA?5?$AAa?$AAr?$AAg?$AAu?$AAm?$AAe?$AAn?$AAt?$AA?$CC?$AA?$AA@ 10033de0     audioIO:audioIO.obj
 0003:00000e10       ??_C@_1KI@INECPEDO@?$AAs?$AAt?$AAd?$AA?3?$AA?3?$AA_?$AAV?$AAe?$AAc?$AAt?$AAo?$AAr?$AA_?$AAc?$AAo?$AAn?$AAs?$AAt?$AA_?$AAi?$AAt?$AAe?$AAr?$AAa?$AAt?$AAo?$AAr?$AA?$DM?$AAi?$AAn?$AAt?$AA?0@ 10033e10     audioIO:audioIO.obj
 0003:00000ee0       ??_C@_1NK@JLHOCNGO@?$AA?$CI?$AA?$CC?$AA_?$AAP?$AAv?$AAe?$AAc?$AAt?$AAo?$AAr?$AA?5?$AA?$DN?$AA?$DN?$AA?5?$AAN?$AAU?$AAL?$AAL?$AA?5?$AA?$HM?$AA?$HM?$AA?5?$AA?$CI?$AA?$CI?$AA?$CI?$AA_?$AAM?$AAy?$AAv?$AAe?$AAc?$AA?5@ 10033ee0     audioIO:audioIO.obj
 0003:00000fe8       ??_C@_1IK@PBGOHPOE@?$AAs?$AAt?$AAd?$AA?3?$AA?3?$AA_?$AAV?$AAe?$AAc?$AAt?$AAo?$AAr?$AA_?$AAc?$AAo?$AAn?$AAs?$AAt?$AA_?$AAi?$AAt?$AAe?$AAr?$AAa?$AAt?$AAo?$AAr?$AA?$DM?$AAi?$AAn?$AAt?$AA?0@ 10033fe8     audioIO:audioIO.obj
 0003:00001090       ??_C@_1FO@OCPOOAIA@?$AA?$CI?$AA?$CC?$AAS?$AAt?$AAa?$AAn?$AAd?$AAa?$AAr?$AAd?$AA?5?$AAC?$AA?$CL?$AA?$CL?$AA?5?$AAL?$AAi?$AAb?$AAr?$AAa?$AAr?$AAi?$AAe?$AAs?$AA?5?$AAI?$AAn?$AAv?$AAa?$AAl?$AAi?$AAd@ 10034090     audioIO:audioIO.obj
 0003:00001100       ??_C@_1DM@HINDPMBP@?$AAv?$AAe?$AAc?$AAt?$AAo?$AAr?$AA?5?$AAi?$AAt?$AAe?$AAr?$AAa?$AAt?$AAo?$AAr?$AAs?$AA?5?$AAi?$AAn?$AAc?$AAo?$AAm?$AAp?$AAa?$AAt?$AAi?$AAb?$AAl?$AAe?$AA?$AA@ 10034100     audioIO:audioIO.obj
 0003:00001148       ??_C@_1PE@CGPCCAGF@?$AAs?$AAt?$AAd?$AA?3?$AA?3?$AA_?$AAV?$AAe?$AAc?$AAt?$AAo?$AAr?$AA_?$AAc?$AAo?$AAn?$AAs?$AAt?$AA_?$AAi?$AAt?$AAe?$AAr?$AAa?$AAt?$AAo?$AAr?$AA?$DM?$AAs?$AAt?$AAr?$AAu@ 10034148     audioIO:audioIO.obj
 0003:00001270       ??_C@_1OO@PBNBABMO@?$AA?$CI?$AA?$CC?$AA_?$AAM?$AAy?$AAp?$AAt?$AAr?$AA?5?$AA?$CL?$AA?5?$AA_?$AAO?$AAf?$AAf?$AA?5?$AA?$DM?$AA?$DN?$AA?5?$AA?$CI?$AA?$CI?$AA_?$AAM?$AAy?$AAv?$AAe?$AAc?$AA?5?$AA?$CK?$AA?$CJ?$AA?$CI?$AAt@ 10034270     audioIO:audioIO.obj
 0003:00001390       ??_C@_1NO@CEMGOHMB@?$AAs?$AAt?$AAd?$AA?3?$AA?3?$AA_?$AAV?$AAe?$AAc?$AAt?$AAo?$AAr?$AA_?$AAc?$AAo?$AAn?$AAs?$AAt?$AA_?$AAi?$AAt?$AAe?$AAr?$AAa?$AAt?$AAo?$AAr?$AA?$DM?$AAs?$AAt?$AAr?$AAu@ 10034390     audioIO:audioIO.obj
 0003:0000149c       ??_C@_1DK@LIMPPGHH@?$AA?$CI?$AA?$CC?$AAt?$AAh?$AAi?$AAs?$AA?9?$AA?$DO?$AA_?$AAM?$AAy?$AAc?$AAo?$AAn?$AAt?$AA?5?$AA?$CB?$AA?$DN?$AA?5?$AAN?$AAU?$AAL?$AAL?$AA?$CC?$AA?0?$AA?5?$AA0?$AA?$CJ?$AA?$AA@ 1003449c     audioIO:audioIO.obj
 0003:000014e8       ??_C@_1NG@MGKKLFMM@?$AAs?$AAt?$AAd?$AA?3?$AA?3?$AA_?$AAV?$AAe?$AAc?$AAt?$AAo?$AAr?$AA_?$AAc?$AAo?$AAn?$AAs?$AAt?$AA_?$AAi?$AAt?$AAe?$AAr?$AAa?$AAt?$AAo?$AAr?$AA?$DM?$AAs?$AAt?$AAr?$AAu@ 100344e8     audioIO:audioIO.obj
 0003:000015ec       ??_7bad_alloc@std@@6B@     100345ec     audioIO:audioIO.obj
 0003:000015f8       ??_C@_1CK@EOPGIILJ@?$AAi?$AAn?$AAv?$AAa?$AAl?$AAi?$AAd?$AA?5?$AAn?$AAu?$AAl?$AAl?$AA?5?$AAp?$AAo?$AAi?$AAn?$AAt?$AAe?$AAr?$AA?$AA@ 100345f8     audioIO:audioIO.obj
 0003:00001630       ??_C@_1HK@MKDHFGFB@?$AAC?$AA?3?$AA?2?$AAP?$AAr?$AAo?$AAg?$AAr?$AAa?$AAm?$AA?5?$AAF?$AAi?$AAl?$AAe?$AAs?$AA?2?$AAM?$AAi?$AAc?$AAr?$AAo?$AAs?$AAo?$AAf?$AAt?$AA?5?$AAV?$AAi?$AAs?$AAu?$AAa@ 10034630     audioIO:audioIO.obj
 0003:000016c8       ??_C@_1JA@BAFKEHI@?$AAs?$AAt?$AAd?$AA?3?$AA?3?$AA_?$AAV?$AAe?$AAc?$AAt?$AAo?$AAr?$AA_?$AAc?$AAo?$AAn?$AAs?$AAt?$AA_?$AAi?$AAt?$AAe?$AAr?$AAa?$AAt?$AAo?$AAr?$AA?$DM?$AAi?$AAn?$AAt?$AA?0@ 100346c8     audioIO:audioIO.obj
 0003:00001778       ??_C@_1EG@FOHJJHAC@?$AAv?$AAe?$AAc?$AAt?$AAo?$AAr?$AA?5?$AAi?$AAt?$AAe?$AAr?$AAa?$AAt?$AAo?$AAr?$AA?5?$AAn?$AAo?$AAt?$AA?5?$AAd?$AAe?$AAr?$AAe?$AAf?$AAe?$AAr?$AAe?$AAn?$AAc?$AAa?$AAb@ 10034778     audioIO:audioIO.obj
 0003:000017cc       ??_C@_1CO@DGLIKNHI@?$AAi?$AAn?$AAv?$AAa?$AAl?$AAi?$AAd?$AA?5?$AAi?$AAt?$AAe?$AAr?$AAa?$AAt?$AAo?$AAr?$AA?5?$AAr?$AAa?$AAn?$AAg?$AAe?$AA?$AA@ 100347cc     audioIO:audioIO.obj
 0003:00001818       ?MAX_SAMPLE_RATES@RtApi@@1IB 10034818     audioIO:RtAudio.obj
 0003:0000181c       ?SAMPLE_RATES@RtApi@@1QBIB 1003481c     audioIO:RtAudio.obj
 0003:000026d0       ??_7RtError@@6B@           100356d0     audioIO:RtAudio.obj
 0003:000026e8       ??_C@_02PHMGELLB@?6?6?$AA@ 100356e8     audioIO:RtAudio.obj
 0003:000026f0       ??_7RtApi@@6B@             100356f0     audioIO:RtAudio.obj
 0003:00002734       ??_7RtApiAsio@@6B@         10035734     audioIO:RtAudio.obj
 0003:00002778       __real@3fe0000000000000    10035778     audioIO:RtAudio.obj
 0003:00002788       __real@4000000000000000    10035788     audioIO:RtAudio.obj
 0003:00002798       __real@405fc00000000000    10035798     audioIO:RtAudio.obj
 0003:000027a8       __real@40dfffc000000000    100357a8     audioIO:RtAudio.obj
 0003:000027b8       __real@41dfffffffc00000    100357b8     audioIO:RtAudio.obj
 0003:000027c4       __real@30000000            100357c4     audioIO:RtAudio.obj
 0003:000027c8       __real@38000000            100357c8     audioIO:RtAudio.obj
 0003:000027cc       __real@3c000000            100357cc     audioIO:RtAudio.obj
 0003:000027d0       __real@3e00000000000000    100357d0     audioIO:RtAudio.obj
 0003:000027e0       __real@3f00000000000000    100357e0     audioIO:RtAudio.obj
 0003:000027f0       __real@3f80000000000000    100357f0     audioIO:RtAudio.obj
 0003:00002800       ??_C@_1HC@HBCEAHKD@?$AAs?$AAt?$AAd?$AA?3?$AA?3?$AAv?$AAe?$AAc?$AAt?$AAo?$AAr?$AA?$DM?$AAi?$AAn?$AAt?$AA?0?$AAc?$AAl?$AAa?$AAs?$AAs?$AA?5?$AAs?$AAt?$AAd?$AA?3?$AA?3?$AAa?$AAl?$AAl?$AAo?$AAc@ 10035800     audioIO:RtAudio.obj
 0003:00002888       ??_C@_1MK@LEDFJJE@?$AAs?$AAt?$AAd?$AA?3?$AA?3?$AAv?$AAe?$AAc?$AAt?$AAo?$AAr?$AA?$DM?$AAs?$AAt?$AAr?$AAu?$AAc?$AAt?$AA?5?$AAR?$AAt?$AAA?$AAp?$AAi?$AA?3?$AA?3?$AAR?$AAt?$AAA?$AAp?$AAi?$AAD@ 10035888     audioIO:RtAudio.obj
 0003:00002980       ??_C@_1BAA@DPIEGNLP@?$AAs?$AAt?$AAd?$AA?3?$AA?3?$AA_?$AAV?$AAe?$AAc?$AAt?$AAo?$AAr?$AA_?$AAc?$AAo?$AAn?$AAs?$AAt?$AA_?$AAi?$AAt?$AAe?$AAr?$AAa?$AAt?$AAo?$AAr?$AA?$DM?$AAs?$AAt?$AAr?$AAu@ 10035980     audioIO:RtAudio.obj
 0003:00002ab8       ??_C@_1JC@PPEAGGND@?$AAs?$AAt?$AAd?$AA?3?$AA?3?$AA_?$AAV?$AAe?$AAc?$AAt?$AAo?$AAr?$AA_?$AAc?$AAo?$AAn?$AAs?$AAt?$AA_?$AAi?$AAt?$AAe?$AAr?$AAa?$AAt?$AAo?$AAr?$AA?$DM?$AAi?$AAn?$AAt?$AA?0@ 10035ab8     audioIO:RtAudio.obj
 0003:00002b68       ??_C@_1OK@GOBOFPDG@?$AAs?$AAt?$AAd?$AA?3?$AA?3?$AA_?$AAV?$AAe?$AAc?$AAt?$AAo?$AAr?$AA_?$AAc?$AAo?$AAn?$AAs?$AAt?$AA_?$AAi?$AAt?$AAe?$AAr?$AAa?$AAt?$AAo?$AAr?$AA?$DM?$AAs?$AAt?$AAr?$AAu@ 10035b68     audioIO:RtAudio.obj
 0003:00002c80       ??_C@_1OC@EELEJBCM@?$AAs?$AAt?$AAd?$AA?3?$AA?3?$AA_?$AAV?$AAe?$AAc?$AAt?$AAo?$AAr?$AA_?$AAc?$AAo?$AAn?$AAs?$AAt?$AA_?$AAi?$AAt?$AAe?$AAr?$AAa?$AAt?$AAo?$AAr?$AA?$DM?$AAs?$AAt?$AAr?$AAu@ 10035c80     audioIO:RtAudio.obj
 0003:00003500       __real@3ff0000000000000    10036500     sibshift:SibShift.obj
 0003:00003510       __real@4068200000000000    10036510     sibshift:SibShift.obj
 0003:00003520       __real@401921fb54442d18    10036520     sibshift:SibShift.obj
 0003:00003530       __real@3fef5c28f5c28f5c    10036530     sibshift:SibShift.obj
 0003:00003540       __real@0000000000000000    10036540     sibshift:SibShift.obj
 0003:00003550       __real@3fb999999999999a    10036550     sibshift:SibShift.obj
 0003:00003560       __real@3f689374bc6a7efa    10036560     sibshift:SibShift.obj
 0003:00003570       __real@4068000000000000    10036570     sibshift:SibShift.obj
 0003:00003580       __real@3e80000000000000    10036580     sibshift:SibShift.obj
 0003:00003590       __real@4040000000000000    10036590     sibshift:SibShift.obj
 0003:000035a0       __real@4030000000000000    100365a0     sibshift:SibShift.obj
 0003:000035b0       __real@4015555555555555    100365b0     sibshift:SibShift.obj
 0003:000035c0       __real@3fd1111111111111    100365c0     sibshift:SibShift.obj
 0003:000035d0       __real@c000000000000000    100365d0     sibshift:SibShift.obj
 0003:000035dc       __real@3f800000            100365dc     sibshift:SibShift.obj
 0003:000035e0       __real@bff0000000000000    100365e0     sibshift:kiss_fftr.obj
 0003:000035f0       __real@c00921fb54442d18    100365f0     sibshift:kiss_fftr.obj
 0003:000035fc       __real@00000000            100365fc     sibshift:kiss_fftr.obj
 0003:00003600       __real@400921fb54442d18    10036600     sibshift:kiss_fft.obj
 0003:0000360c       __pRawDllMain              1003660c     MSVCRTD:crtdll.obj
 0003:0000360c       __pDefaultRawDllMain       1003660c     MSVCRTD:crtdll.obj
 0003:00003610       ??_C@_08EIBOPINA@crtdll?4c?$AA@ 10036610     MSVCRTD:crtdll.obj
 0003:00003620       ??_7type_info@@6B@         10036620     MSVCRTD:ti_inst.obj
 0003:00003628       ??_C@_0BO@GNIAFIKK@Unknown?5Runtime?5Check?5Error?6?$AN?$AA@ 10036628     MSVCRTD:error.obj
 0003:0000364c       ??_C@_0CM@NGINOKPC@Stack?5memory?5around?5_alloca?5was?5@ 1003664c     MSVCRTD:error.obj
 0003:00003680       ??_C@_0DG@HKJMLLLP@A?5local?5variable?5was?5used?5before@ 10036680     MSVCRTD:error.obj
 0003:000036c0       ??_C@_0BN@FFOINMNJ@Stack?5memory?5was?5corrupted?6?$AN?$AA@ 100366c0     MSVCRTD:error.obj
 0003:000036e8       ??_C@_0BBN@GPMLNJCF@A?5cast?5to?5a?5smaller?5data?5type?5ha@ 100366e8     MSVCRTD:error.obj
 0003:00003840       ??_C@_0NN@NGPKDKPD@The?5value?5of?5ESP?5was?5not?5properl@ 10036840     MSVCRTD:error.obj
 0003:000039ec       ??_C@_0CA@IODNCDPG@Run?9Time?5Check?5Failure?5?$CD?$CFd?5?9?5?$CFs?$AA@ 100369ec     MSVCRTD:error.obj
 0003:00003a14       ??_C@_0BE@GNBOBNCK@Unknown?5Module?5Name?$AA@ 10036a14     MSVCRTD:error.obj
 0003:00003a2c       ??_C@_0BB@PFFGGCJP@Unknown?5Filename?$AA@ 10036a2c     MSVCRTD:error.obj
 0003:00003a40       ??_C@_1EA@NFKNIFJP@?$AAR?$AAu?$AAn?$AA?9?$AAT?$AAi?$AAm?$AAe?$AA?5?$AAC?$AAh?$AAe?$AAc?$AAk?$AA?5?$AAF?$AAa?$AAi?$AAl?$AAu?$AAr?$AAe?$AA?5?$AA?$CD?$AA?$CF?$AAd?$AA?5?$AA?9?$AA?5?$AA?$CF?$AAs?$AA?$AA@ 10036a40     MSVCRTD:error.obj
 0003:00003a90       ??_C@_1GM@OLMCBDMB@?$AAR?$AAu?$AAn?$AAt?$AAi?$AAm?$AAe?$AA?5?$AAC?$AAh?$AAe?$AAc?$AAk?$AA?5?$AAE?$AAr?$AAr?$AAo?$AAr?$AA?4?$AA?6?$AA?$AN?$AA?5?$AAU?$AAn?$AAa?$AAb?$AAl?$AAe?$AA?5?$AAt?$AAo@ 10036a90     MSVCRTD:error.obj
 0003:00003b14       ??_C@_0CG@IAFNJNEE@Stack?5corrupted?5near?5unknown?5var@ 10036b14     MSVCRTD:error.obj
 0003:00003b48       ??_C@_0EJ@LJKNEOLN@Stack?5area?5around?5_alloca?5memory@ 10036b48     MSVCRTD:error.obj
 0003:00003ba0       ??_C@_08KJEDNCKC@?$CFs?$CFs?$CFs?$CFs?$AA@ 10036ba0     MSVCRTD:error.obj
 0003:00003bac       ??_C@_02LLMPMKNF@?$DO?5?$AA@ 10036bac     MSVCRTD:error.obj
 0003:00003bb0       ??_C@_01EEMJAFIK@?6?$AA@   10036bb0     MSVCRTD:error.obj
 0003:00003bb4       ??_C@_0BC@KIBAILCI@?$CFs?$CFs?$CFp?$CFs?$CFld?$CFs?$CFd?$CFs?$AA@ 10036bb4     MSVCRTD:error.obj
 0003:00003bd0       ??_C@_0EI@CLEPFNGI@Stack?5area?5around?5_alloca?5memory@ 10036bd0     MSVCRTD:error.obj
 0003:00003c28       ??_C@_0N@MHFFIMFG@?6Address?3?50x?$AA@ 10036c28     MSVCRTD:error.obj
 0003:00003c38       ??_C@_07DFDJCKFN@?6Size?3?5?$AA@ 10036c38     MSVCRTD:error.obj
 0003:00003c44       ??_C@_0CK@DKGBICFE@?6Allocation?5number?5within?5this?5f@ 10036c44     MSVCRTD:error.obj
 0003:00003c78       ??_C@_08OMAHNMHJ@?6Data?3?5?$DM?$AA@ 10036c78     MSVCRTD:error.obj
 0003:00003c84       ??_C@_09FOPFMPEJ@wsprintfA?$AA@ 10036c84     MSVCRTD:error.obj
 0003:00003c90       ??_C@_0L@GMPLCCII@user32?4dll?$AA@ 10036c90     MSVCRTD:error.obj
 0003:00003ca0       ??_C@_05MKKEDADM@?$CF?42X?5?$AA@ 10036ca0     MSVCRTD:error.obj
 0003:00003ca8       ??_C@_0DE@OHJBPMBP@A?5variable?5is?5being?5used?5without@ 10036ca8     MSVCRTD:error.obj
 0003:00003ce8       ??_C@_0BP@OGBCLIBO@Stack?5around?5_alloca?5corrupted?$AA@ 10036ce8     MSVCRTD:userapi.obj
 0003:00003d10       ??_C@_0CK@CNLNOEPB@Local?5variable?5used?5before?5initi@ 10036d10     MSVCRTD:userapi.obj
 0003:00003d44       ??_C@_0BI@CIGMDCBH@Stack?5memory?5corruption?$AA@ 10036d44     MSVCRTD:userapi.obj
 0003:00003d60       ??_C@_0CK@FEGOIOPB@Cast?5to?5smaller?5type?5causing?5los@ 10036d60     MSVCRTD:userapi.obj
 0003:00003d94       ??_C@_0BJ@HEGAHDFO@Stack?5pointer?5corruption?$AA@ 10036d94     MSVCRTD:userapi.obj
 0003:00003dcc       ?ProcessDetach@NativeDll@<CrtImplementationDetails>@@0IB 10036dcc     MSVCRTD:tncleanup.obj
 0003:00003dd0       ?ProcessAttach@NativeDll@<CrtImplementationDetails>@@0IB 10036dd0     MSVCRTD:tncleanup.obj
 0003:00003dd4       ?ThreadAttach@NativeDll@<CrtImplementationDetails>@@0IB 10036dd4     MSVCRTD:tncleanup.obj
 0003:00003dd8       ?ThreadDetach@NativeDll@<CrtImplementationDetails>@@0IB 10036dd8     MSVCRTD:tncleanup.obj
 0003:00003ddc       ?ProcessVerifier@NativeDll@<CrtImplementationDetails>@@0IB 10036ddc     MSVCRTD:tncleanup.obj
 0003:00003dec       ??_C@_0M@EKFFODEC@MSPDB80?4DLL?$AA@ 10036dec     MSVCRTD:pdblkup.obj
 0003:00003dfc       ??_C@_01KDCPPGHE@r?$AA@    10036dfc     MSVCRTD:pdblkup.obj
 0003:00003e00       ??_C@_0BB@KCIACLNC@PDBOpenValidate5?$AA@ 10036e00     MSVCRTD:pdblkup.obj
 0003:00003e14       ??_C@_0BF@BMIHBHCA@EnvironmentDirectory?$AA@ 10036e14     MSVCRTD:pdblkup.obj
 0003:00003e30       ??_C@_0CN@EAEOKKOC@SOFTWARE?2Microsoft?2VisualStudio?2@ 10036e30     MSVCRTD:pdblkup.obj
 0003:00003e68       ??_C@_0M@HLOHPNFA@RegCloseKey?$AA@ 10036e68     MSVCRTD:pdblkup.obj
 0003:00003e78       ??_C@_0BB@HHEIPGME@RegQueryValueExA?$AA@ 10036e78     MSVCRTD:pdblkup.obj
 0003:00003e8c       ??_C@_0O@DCOGKJGG@RegOpenKeyExA?$AA@ 10036e8c     MSVCRTD:pdblkup.obj
 0003:00003e9c       ??_C@_0N@JJPEKNFO@ADVAPI32?4DLL?$AA@ 10036e9c     MSVCRTD:pdblkup.obj
 0003:000041c8       ??_R4length_error@std@@6B@ 100371c8     audioIO:audioIO.obj
 0003:000041e0       ??_R3length_error@std@@8   100371e0     audioIO:audioIO.obj
 0003:000041f4       ??_R2length_error@std@@8   100371f4     audioIO:audioIO.obj
 0003:00004204       ??_R1A@?0A@EA@length_error@std@@8 10037204     audioIO:audioIO.obj
 0003:00004228       ??_R1A@?0A@EA@logic_error@std@@8 10037228     audioIO:audioIO.obj
 0003:0000424c       ??_R3logic_error@std@@8    1003724c     audioIO:audioIO.obj
 0003:00004260       ??_R2logic_error@std@@8    10037260     audioIO:audioIO.obj
 0003:0000426c       ??_R1A@?0A@EA@exception@std@@8 1003726c     audioIO:audioIO.obj
 0003:00004290       ??_R3exception@std@@8      10037290     audioIO:audioIO.obj
 0003:000042a4       ??_R2exception@std@@8      100372a4     audioIO:audioIO.obj
 0003:000042ac       ??_R4logic_error@std@@6B@  100372ac     audioIO:audioIO.obj
 0003:000042c4       ??_R4bad_alloc@std@@6B@    100372c4     audioIO:audioIO.obj
 0003:000042dc       ??_R3bad_alloc@std@@8      100372dc     audioIO:audioIO.obj
 0003:000042f0       ??_R2bad_alloc@std@@8      100372f0     audioIO:audioIO.obj
 0003:000042fc       ??_R1A@?0A@EA@bad_alloc@std@@8 100372fc     audioIO:audioIO.obj
 0003:00004320       ??_R4RtError@@6B@          10037320     audioIO:RtAudio.obj
 0003:00004338       ??_R3RtError@@8            10037338     audioIO:RtAudio.obj
 0003:0000434c       ??_R2RtError@@8            1003734c     audioIO:RtAudio.obj
 0003:00004354       ??_R1A@?0A@EA@RtError@@8   10037354     audioIO:RtAudio.obj
 0003:00004378       ??_R4RtApi@@6B@            10037378     audioIO:RtAudio.obj
 0003:00004390       ??_R3RtApi@@8              10037390     audioIO:RtAudio.obj
 0003:000043a4       ??_R2RtApi@@8              100373a4     audioIO:RtAudio.obj
 0003:000043ac       ??_R1A@?0A@EA@RtApi@@8     100373ac     audioIO:RtAudio.obj
 0003:000043d0       ??_R4RtApiAsio@@6B@        100373d0     audioIO:RtAudio.obj
 0003:000043e8       ??_R3RtApiAsio@@8          100373e8     audioIO:RtAudio.obj
 0003:000043fc       ??_R2RtApiAsio@@8          100373fc     audioIO:RtAudio.obj
 0003:00004408       ??_R1A@?0A@EA@RtApiAsio@@8 10037408     audioIO:RtAudio.obj
 0003:0000442c       ??_R4type_info@@6B@        1003742c     MSVCRTD:ti_inst.obj
 0003:00004444       ??_R3type_info@@8          10037444     MSVCRTD:ti_inst.obj
 0003:00004458       ??_R2type_info@@8          10037458     MSVCRTD:ti_inst.obj
 0003:00004460       ??_R1A@?0A@EA@type_info@@8 10037460     MSVCRTD:ti_inst.obj
 0003:00004594       ___rtc_iaa                 10037594     MSVCRTD:initsect.obj
 0003:0000479c       ___rtc_izz                 1003779c     MSVCRTD:initsect.obj
 0003:000048a0       ___rtc_taa                 100378a0     MSVCRTD:initsect.obj
 0003:00004aa8       ___rtc_tzz                 10037aa8     MSVCRTD:initsect.obj
 0003:00005014       __TI3?AVlength_error@std@@ 10038014     audioIO:audioIO.obj
 0003:00005058       __CTA3?AVlength_error@std@@ 10038058     audioIO:audioIO.obj
 0003:0000506c       __CT??_R0?AVlength_error@std@@@8??0length_error@std@@QAE@ABV01@@Z44 1003806c     audioIO:audioIO.obj
 0003:0000508c       __CT??_R0?AVlogic_error@std@@@8??0logic_error@std@@QAE@ABV01@@Z44 1003808c     audioIO:audioIO.obj
 0003:000050ac       __CT??_R0?AVexception@std@@@8??0exception@std@@QAE@ABV01@@Z12 100380ac     audioIO:audioIO.obj
 0003:000053ec       __TI2?AVbad_alloc@std@@    100383ec     audioIO:audioIO.obj
 0003:00005400       __CTA2?AVbad_alloc@std@@   10038400     audioIO:audioIO.obj
 0003:00005410       __CT??_R0?AVbad_alloc@std@@@8??0bad_alloc@std@@QAE@ABV01@@Z12 10038410     audioIO:audioIO.obj
 0003:0000566c       __TI1?AVRtError@@          1003866c     audioIO:RtAudio.obj
 0003:00005a4c       __CTA1?AVRtError@@         10038a4c     audioIO:RtAudio.obj
 0003:00005a54       __CT??_R0?AVRtError@@@8??0RtError@@QAE@ABV0@@Z40 10038a54     audioIO:RtAudio.obj
 0004:00000008       ??_R0?AVRtError@@@8        1003a008     audioIO:audioIO.obj
 0004:00000024       ??_R0?AVlength_error@std@@@8 1003a024     audioIO:audioIO.obj
 0004:0000004c       ??_R0?AVlogic_error@std@@@8 1003a04c     audioIO:audioIO.obj
 0004:00000070       ??_R0?AVexception@std@@@8  1003a070     audioIO:audioIO.obj
 0004:00000094       ??_R0?AVbad_alloc@std@@@8  1003a094     audioIO:audioIO.obj
 0004:000000bc       ??_R0?AVRtApi@@@8          1003a0bc     audioIO:RtAudio.obj
 0004:000000d4       ??_R0?AVRtApiAsio@@@8      1003a0d4     audioIO:RtAudio.obj
 0004:00000150       ?paramarray@@3PAPADA       1003a150     sibshift:SibShift.obj
 0004:00000220       ___security_cookie         1003a220     MSVCRTD:gs_cookie.obj
 0004:00000224       ___security_cookie_complement 1003a224     MSVCRTD:gs_cookie.obj
 0004:00000228       ??_R0?AVtype_info@@@8      1003a228     MSVCRTD:ti_inst.obj
 0004:00000250       ?_RTC_ErrorLevels@@3PAHA   1003a250     MSVCRTD:error.obj
 0004:00000284       ___native_dllmain_reason   1003a284     MSVCRTD:natstart.obj
 0004:00000288       ___native_vcclrit_reason   1003a288     MSVCRTD:natstart.obj
 0004:01a62900       ?audio@@3PAVRtAudio@@A     11a9c900     audioIO:audioIO.obj
 0004:01a62908       ?driverInfo@@3UASIODriverInfo@@A 11a9c908     audioIO:RtAudio.obj
 0004:01a629b0       ?asioCallbacks@@3UASIOCallbacks@@A 11a9c9b0     audioIO:RtAudio.obj
 0004:01a629c0       ?asioCallbackInfo@@3PAUCallbackInfo@@A 11a9c9c0     audioIO:RtAudio.obj
 0004:01a629c4       ?drivers@@3VAsioDrivers@@A 11a9c9c4     audioIO:RtAudio.obj
 0004:01a629fc       ?asioDrivers@@3PAVAsioDrivers@@A 11a9c9fc     audioIO:asiodrivers.obj
 0004:01a62a00       ?theAsioDriver@@3PAUIASIO@@A 11a9ca00     audioIO:asio.obj
 0004:01a6420c       ?wsprintffp@@3P6AHPADPBDZZA 11a9e20c     MSVCRTD:error.obj
 0004:01a6421c       __forceCRTManifest         11a9e21c     MSVCRTD:crtmanifest.obj
 0004:01a64220       ?__type_info_root_node@@3U__type_info_node@@A 11a9e220     MSVCRTD:tncleanup.obj
 0004:01a64600       __adjust_fdiv              11a9e600     <common>
 0004:01a6460c       ___native_startup_state    11a9e60c     <common>
 0004:01a6461c       ___native_startup_lock     11a9e61c     <common>
 0004:01a64620       ___sse2_available          11a9e620     <common>
 0004:01a6462c       ___dyn_tls_init_callback   11a9e62c     <common>
 0004:01a64638       ___onexitend               11a9e638     <common>
 0004:01a64648       ___onexitbegin             11a9e648     <common>
 0005:00000000       __IMPORT_DESCRIPTOR_libmx  11a9f000     libmx:libmx.dll
 0005:00000014       __IMPORT_DESCRIPTOR_libmex 11a9f014     libmex:libmex.dll
 0005:00000028       __IMPORT_DESCRIPTOR_USER32 11a9f028     user32:USER32.dll
 0005:0000003c       __IMPORT_DESCRIPTOR_ADVAPI32 11a9f03c     advapi32:ADVAPI32.dll
 0005:00000050       __IMPORT_DESCRIPTOR_ole32  11a9f050     ole32:ole32.dll
 0005:00000064       __IMPORT_DESCRIPTOR_KERNEL32 11a9f064     kernel32:KERNEL32.dll
 0005:00000078       __IMPORT_DESCRIPTOR_MSVCP80D 11a9f078     msvcprtd:MSVCP80D.dll
 0005:0000008c       __IMPORT_DESCRIPTOR_MSVCR80D 11a9f08c     MSVCRTD:MSVCR80D.dll
 0005:000000a0       __NULL_IMPORT_DESCRIPTOR   11a9f0a0     libmx:libmx.dll
 0005:00000524       __imp__RegQueryValueExA@24 11a9f524     advapi32:ADVAPI32.dll
 0005:00000528       __imp__RegOpenKeyA@12      11a9f528     advapi32:ADVAPI32.dll
 0005:0000052c       __imp__RegEnumKeyA@16      11a9f52c     advapi32:ADVAPI32.dll
 0005:00000530       __imp__RegCloseKey@4       11a9f530     advapi32:ADVAPI32.dll
 0005:00000534       __imp__RegOpenKeyExA@20    11a9f534     advapi32:ADVAPI32.dll
 0005:00000538       \177ADVAPI32_NULL_THUNK_DATA 11a9f538     advapi32:ADVAPI32.dll
 0005:00000568       __imp__HeapFree@12         11a9f568     kernel32:KERNEL32.dll
 0005:0000056c       __imp__GetCurrentProcess@0 11a9f56c     kernel32:KERNEL32.dll
 0005:00000570       __imp__HeapAlloc@12        11a9f570     kernel32:KERNEL32.dll
 0005:00000574       __imp__GetProcessHeap@0    11a9f574     kernel32:KERNEL32.dll
 0005:00000578       __imp__GetModuleFileNameW@12 11a9f578     kernel32:KERNEL32.dll
 0005:0000057c       __imp__VirtualQuery@12     11a9f57c     kernel32:KERNEL32.dll
 0005:00000580       __imp__UnhandledExceptionFilter@4 11a9f580     kernel32:KERNEL32.dll
 0005:00000584       __imp__SetUnhandledExceptionFilter@4 11a9f584     kernel32:KERNEL32.dll
 0005:00000588       __imp__FreeLibrary@4       11a9f588     kernel32:KERNEL32.dll
 0005:0000058c       __imp__TerminateProcess@8  11a9f58c     kernel32:KERNEL32.dll
 0005:00000590       __imp__DisableThreadLibraryCalls@4 11a9f590     kernel32:KERNEL32.dll
 0005:00000594       __imp__GetSystemTimeAsFileTime@4 11a9f594     kernel32:KERNEL32.dll
 0005:00000598       __imp__GetCurrentProcessId@0 11a9f598     kernel32:KERNEL32.dll
 0005:0000059c       __imp__GetCurrentThreadId@0 11a9f59c     kernel32:KERNEL32.dll
 0005:000005a0       __imp__InitializeCriticalSection@4 11a9f5a0     kernel32:KERNEL32.dll
 0005:000005a4       __imp__DeleteCriticalSection@4 11a9f5a4     kernel32:KERNEL32.dll
 0005:000005a8       __imp__CloseHandle@4       11a9f5a8     kernel32:KERNEL32.dll
 0005:000005ac       __imp__CreateEventA@16     11a9f5ac     kernel32:KERNEL32.dll
 0005:000005b0       __imp__LeaveCriticalSection@4 11a9f5b0     kernel32:KERNEL32.dll
 0005:000005b4       __imp__EnterCriticalSection@4 11a9f5b4     kernel32:KERNEL32.dll
 0005:000005b8       __imp__ResetEvent@4        11a9f5b8     kernel32:KERNEL32.dll
 0005:000005bc       __imp__WaitForMultipleObjects@16 11a9f5bc     kernel32:KERNEL32.dll
 0005:000005c0       __imp__SetEvent@4          11a9f5c0     kernel32:KERNEL32.dll
 0005:000005c4       __imp__MultiByteToWideChar@24 11a9f5c4     kernel32:KERNEL32.dll
 0005:000005c8       __imp__OpenFile@12         11a9f5c8     kernel32:KERNEL32.dll
 0005:000005cc       __imp__QueryPerformanceCounter@4 11a9f5cc     kernel32:KERNEL32.dll
 0005:000005d0       __imp__LoadLibraryA@4      11a9f5d0     kernel32:KERNEL32.dll
 0005:000005d4       __imp__GetProcAddress@8    11a9f5d4     kernel32:KERNEL32.dll
 0005:000005d8       __imp__lstrlenA@4          11a9f5d8     kernel32:KERNEL32.dll
 0005:000005dc       __imp__IsDebuggerPresent@0 11a9f5dc     kernel32:KERNEL32.dll
 0005:000005e0       __imp__WideCharToMultiByte@32 11a9f5e0     kernel32:KERNEL32.dll
 0005:000005e4       __imp__DebugBreak@0        11a9f5e4     kernel32:KERNEL32.dll
 0005:000005e8       __imp__RaiseException@16   11a9f5e8     kernel32:KERNEL32.dll
 0005:000005ec       __imp__InterlockedCompareExchange@12 11a9f5ec     kernel32:KERNEL32.dll
 0005:000005f0       __imp__Sleep@4             11a9f5f0     kernel32:KERNEL32.dll
 0005:000005f4       __imp__InterlockedExchange@8 11a9f5f4     kernel32:KERNEL32.dll
 0005:000005f8       __imp__GetTickCount@0      11a9f5f8     kernel32:KERNEL32.dll
 0005:000005fc       \177KERNEL32_NULL_THUNK_DATA 11a9f5fc     kernel32:KERNEL32.dll
 0005:00000644       __imp_??$?6DU?$char_traits@D@std@@V?$allocator@D@1@@std@@YAAAV?$basic_ostream@DU?$char_traits@D@std@@@0@AAV10@ABV?$basic_string@DU?$char_traits@D@std@@V?$allocator@D@2@@0@@Z 11a9f644     msvcprtd:MSVCP80D.dll
 0005:00000648       __imp_?cerr@std@@3V?$basic_ostream@DU?$char_traits@D@std@@@1@A 11a9f648     msvcprtd:MSVCP80D.dll
 0005:0000064c       __imp_?append@?$basic_string@DU?$char_traits@D@std@@V?$allocator@D@2@@std@@QAEAAV12@PBD@Z 11a9f64c     msvcprtd:MSVCP80D.dll
 0005:00000650       __imp_?append@?$basic_string@DU?$char_traits@D@std@@V?$allocator@D@2@@std@@QAEAAV12@ABV12@@Z 11a9f650     msvcprtd:MSVCP80D.dll
 0005:00000654       __imp_?append@?$basic_string@DU?$char_traits@D@std@@V?$allocator@D@2@@std@@QAEAAV12@PBDI@Z 11a9f654     msvcprtd:MSVCP80D.dll
 0005:00000658       __imp_?erase@?$basic_string@DU?$char_traits@D@std@@V?$allocator@D@2@@std@@QAEAAV12@II@Z 11a9f658     msvcprtd:MSVCP80D.dll
 0005:0000065c       __imp_?npos@?$basic_string@DU?$char_traits@D@std@@V?$allocator@D@2@@std@@2IB 11a9f65c     msvcprtd:MSVCP80D.dll
 0005:00000660       __imp_??6?$basic_ostream@DU?$char_traits@D@std@@@std@@QAEAAV01@P6AAAV01@AAV01@@Z@Z 11a9f660     msvcprtd:MSVCP80D.dll
 0005:00000664       __imp_?endl@std@@YAAAV?$basic_ostream@DU?$char_traits@D@std@@@1@AAV21@@Z 11a9f664     msvcprtd:MSVCP80D.dll
 0005:00000668       __imp_?width@ios_base@std@@QAEHH@Z 11a9f668     msvcprtd:MSVCP80D.dll
 0005:0000066c       __imp_?setstate@?$basic_ios@DU?$char_traits@D@std@@@std@@QAEXH_N@Z 11a9f66c     msvcprtd:MSVCP80D.dll
 0005:00000670       __imp_?eq_int_type@?$char_traits@D@std@@SA_NABH0@Z 11a9f670     msvcprtd:MSVCP80D.dll
 0005:00000674       __imp_?eof@?$char_traits@D@std@@SAHXZ 11a9f674     msvcprtd:MSVCP80D.dll
 0005:00000678       __imp_?sputc@?$basic_streambuf@DU?$char_traits@D@std@@@std@@QAEHD@Z 11a9f678     msvcprtd:MSVCP80D.dll
 0005:0000067c       __imp_?rdbuf@?$basic_ios@DU?$char_traits@D@std@@@std@@QBEPAV?$basic_streambuf@DU?$char_traits@D@std@@@2@XZ 11a9f67c     msvcprtd:MSVCP80D.dll
 0005:00000680       __imp_?fill@?$basic_ios@DU?$char_traits@D@std@@@std@@QBEDXZ 11a9f680     msvcprtd:MSVCP80D.dll
 0005:00000684       __imp_?flags@ios_base@std@@QBEHXZ 11a9f684     msvcprtd:MSVCP80D.dll
 0005:00000688       __imp_?width@ios_base@std@@QBEHXZ 11a9f688     msvcprtd:MSVCP80D.dll
 0005:0000068c       __imp_?flush@?$basic_ostream@DU?$char_traits@D@std@@@std@@QAEAAV12@XZ 11a9f68c     msvcprtd:MSVCP80D.dll
 0005:00000690       __imp_?tie@?$basic_ios@DU?$char_traits@D@std@@@std@@QBEPAV?$basic_ostream@DU?$char_traits@D@std@@@2@XZ 11a9f690     msvcprtd:MSVCP80D.dll
 0005:00000694       __imp_?good@ios_base@std@@QBE_NXZ 11a9f694     msvcprtd:MSVCP80D.dll
 0005:00000698       __imp_?_Osfx@?$basic_ostream@DU?$char_traits@D@std@@@std@@QAEXXZ 11a9f698     msvcprtd:MSVCP80D.dll
 0005:0000069c       __imp_?uncaught_exception@std@@YA_NXZ 11a9f69c     msvcprtd:MSVCP80D.dll
 0005:000006a0       __imp_?_Lock@?$basic_streambuf@DU?$char_traits@D@std@@@std@@QAEXXZ 11a9f6a0     msvcprtd:MSVCP80D.dll
 0005:000006a4       __imp_?_Unlock@?$basic_streambuf@DU?$char_traits@D@std@@@std@@QAEXXZ 11a9f6a4     msvcprtd:MSVCP80D.dll
 0005:000006a8       __imp_?sputn@?$basic_streambuf@DU?$char_traits@D@std@@@std@@QAEHPBDH@Z 11a9f6a8     msvcprtd:MSVCP80D.dll
 0005:000006ac       __imp_?length@?$char_traits@D@std@@SAIPBD@Z 11a9f6ac     msvcprtd:MSVCP80D.dll
 0005:000006b0       __imp_?_Debug_message@std@@YAXPB_W0I@Z 11a9f6b0     msvcprtd:MSVCP80D.dll
 0005:000006b4       __imp_??4?$basic_string@DU?$char_traits@D@std@@V?$allocator@D@2@@std@@QAEAAV01@ABV01@@Z 11a9f6b4     msvcprtd:MSVCP80D.dll
 0005:000006b8       __imp_??1?$basic_string@DU?$char_traits@D@std@@V?$allocator@D@2@@std@@QAE@XZ 11a9f6b8     msvcprtd:MSVCP80D.dll
 0005:000006bc       __imp_??0?$basic_string@DU?$char_traits@D@std@@V?$allocator@D@2@@std@@QAE@U_Has_debug_it@01@@Z 11a9f6bc     msvcprtd:MSVCP80D.dll
 0005:000006c0       __imp_?_Orphan_all@_Container_base@std@@QBEXXZ 11a9f6c0     msvcprtd:MSVCP80D.dll
 0005:000006c4       __imp_??1_Container_base@std@@QAE@XZ 11a9f6c4     msvcprtd:MSVCP80D.dll
 0005:000006c8       __imp_??0_Container_base@std@@QAE@XZ 11a9f6c8     msvcprtd:MSVCP80D.dll
 0005:000006cc       __imp_??1_Lockit@std@@QAE@XZ 11a9f6cc     msvcprtd:MSVCP80D.dll
 0005:000006d0       __imp_??0?$basic_string@DU?$char_traits@D@std@@V?$allocator@D@2@@std@@QAE@ABV01@@Z 11a9f6d0     msvcprtd:MSVCP80D.dll
 0005:000006d4       __imp_??0_Lockit@std@@QAE@H@Z 11a9f6d4     msvcprtd:MSVCP80D.dll
 0005:000006d8       __imp_??0?$basic_string@DU?$char_traits@D@std@@V?$allocator@D@2@@std@@QAE@PBD@Z 11a9f6d8     msvcprtd:MSVCP80D.dll
 0005:000006dc       __imp_?c_str@?$basic_string@DU?$char_traits@D@std@@V?$allocator@D@2@@std@@QBEPBDXZ 11a9f6dc     msvcprtd:MSVCP80D.dll
 0005:000006e0       \177MSVCP80D_NULL_THUNK_DATA 11a9f6e0     msvcprtd:MSVCP80D.dll
 0005:00000728       __imp__memmove_s           11a9f728     MSVCRTD:MSVCR80D.dll
 0005:0000072c       __imp___purecall           11a9f72c     MSVCRTD:MSVCR80D.dll
 0005:00000730       __imp__sprintf             11a9f730     MSVCRTD:MSVCR80D.dll
 0005:00000734       __imp__strlen              11a9f734     MSVCRTD:MSVCR80D.dll
 0005:00000738       __imp__fprintf             11a9f738     MSVCRTD:MSVCR80D.dll
 0005:0000073c       __imp____iob_func          11a9f73c     MSVCRTD:MSVCR80D.dll
 0005:00000740       __imp__malloc              11a9f740     MSVCRTD:MSVCR80D.dll
 0005:00000744       __imp__free                11a9f744     MSVCRTD:MSVCR80D.dll
 0005:00000748       __imp__calloc              11a9f748     MSVCRTD:MSVCR80D.dll
 0005:0000074c       __imp__pow                 11a9f74c     MSVCRTD:MSVCR80D.dll
 0005:00000750       __imp__log10               11a9f750     MSVCRTD:MSVCR80D.dll
 0005:00000754       __imp__memcpy              11a9f754     MSVCRTD:MSVCR80D.dll
 0005:00000758       __imp__memset              11a9f758     MSVCRTD:MSVCR80D.dll
 0005:0000075c       __imp__printf              11a9f75c     MSVCRTD:MSVCR80D.dll
 0005:00000760       __imp__strcmp              11a9f760     MSVCRTD:MSVCR80D.dll
 0005:00000764       __imp__strcpy              11a9f764     MSVCRTD:MSVCR80D.dll
 0005:00000768       __imp___wassert            11a9f768     MSVCRTD:MSVCR80D.dll
 0005:0000076c       __imp_?what@exception@std@@UBEPBDXZ 11a9f76c     MSVCRTD:MSVCR80D.dll
 0005:00000770       __imp__acos                11a9f770     MSVCRTD:MSVCR80D.dll
 0005:00000774       __imp__asin                11a9f774     MSVCRTD:MSVCR80D.dll
 0005:00000778       __imp__atan                11a9f778     MSVCRTD:MSVCR80D.dll
 0005:0000077c       __imp__atan2               11a9f77c     MSVCRTD:MSVCR80D.dll
 0005:00000780       __imp__ceil                11a9f780     MSVCRTD:MSVCR80D.dll
 0005:00000784       __imp__cos                 11a9f784     MSVCRTD:MSVCR80D.dll
 0005:00000788       __imp__cosh                11a9f788     MSVCRTD:MSVCR80D.dll
 0005:0000078c       __imp__exp                 11a9f78c     MSVCRTD:MSVCR80D.dll
 0005:00000790       __imp__fabs                11a9f790     MSVCRTD:MSVCR80D.dll
 0005:00000794       __imp__fmod                11a9f794     MSVCRTD:MSVCR80D.dll
 0005:00000798       __imp__frexp               11a9f798     MSVCRTD:MSVCR80D.dll
 0005:0000079c       __imp__ldexp               11a9f79c     MSVCRTD:MSVCR80D.dll
 0005:000007a0       __imp__log                 11a9f7a0     MSVCRTD:MSVCR80D.dll
 0005:000007a4       __imp__modf                11a9f7a4     MSVCRTD:MSVCR80D.dll
 0005:000007a8       __imp__sin                 11a9f7a8     MSVCRTD:MSVCR80D.dll
 0005:000007ac       __imp__sinh                11a9f7ac     MSVCRTD:MSVCR80D.dll
 0005:000007b0       __imp__sqrt                11a9f7b0     MSVCRTD:MSVCR80D.dll
 0005:000007b4       __imp__tan                 11a9f7b4     MSVCRTD:MSVCR80D.dll
 0005:000007b8       __imp__tanh                11a9f7b8     MSVCRTD:MSVCR80D.dll
 0005:000007bc       __imp___chgsign            11a9f7bc     MSVCRTD:MSVCR80D.dll
 0005:000007c0       __imp___copysign           11a9f7c0     MSVCRTD:MSVCR80D.dll
 0005:000007c4       __imp__labs                11a9f7c4     MSVCRTD:MSVCR80D.dll
 0005:000007c8       __imp__rand                11a9f7c8     MSVCRTD:MSVCR80D.dll
 0005:000007cc       __imp__exit                11a9f7cc     MSVCRTD:MSVCR80D.dll
 0005:000007d0       __imp___unlock             11a9f7d0     MSVCRTD:MSVCR80D.dll
 0005:000007d4       __imp____dllonexit         11a9f7d4     MSVCRTD:MSVCR80D.dll
 0005:000007d8       __imp___encode_pointer     11a9f7d8     MSVCRTD:MSVCR80D.dll
 0005:000007dc       __imp___lock               11a9f7dc     MSVCRTD:MSVCR80D.dll
 0005:000007e0       __imp___onexit             11a9f7e0     MSVCRTD:MSVCR80D.dll
 0005:000007e4       __imp___decode_pointer     11a9f7e4     MSVCRTD:MSVCR80D.dll
 0005:000007e8       __imp___CRT_RTC_INITW      11a9f7e8     MSVCRTD:MSVCR80D.dll
 0005:000007ec       __imp___malloc_dbg         11a9f7ec     MSVCRTD:MSVCR80D.dll
 0005:000007f0       __imp___free_dbg           11a9f7f0     MSVCRTD:MSVCR80D.dll
 0005:000007f4       __imp___encoded_null       11a9f7f4     MSVCRTD:MSVCR80D.dll
 0005:000007f8       __imp___CrtSetCheckCount   11a9f7f8     MSVCRTD:MSVCR80D.dll
 0005:000007fc       __imp___initterm           11a9f7fc     MSVCRTD:MSVCR80D.dll
 0005:00000800       __imp___initterm_e         11a9f800     MSVCRTD:MSVCR80D.dll
 0005:00000804       __imp___amsg_exit          11a9f804     MSVCRTD:MSVCR80D.dll
 0005:00000808       __imp___adjust_fdiv        11a9f808     MSVCRTD:MSVCR80D.dll
 0005:0000080c       __imp____CppXcptFilter     11a9f80c     MSVCRTD:MSVCR80D.dll
 0005:00000810       __imp_?terminate@@YAXXZ    11a9f810     MSVCRTD:MSVCR80D.dll
 0005:00000814       __imp___except_handler4_common 11a9f814     MSVCRTD:MSVCR80D.dll
 0005:00000818       __imp____clean_type_info_names_internal 11a9f818     MSVCRTD:MSVCR80D.dll
 0005:0000081c       __imp___crt_debugger_hook  11a9f81c     MSVCRTD:MSVCR80D.dll
 0005:00000820       __imp_?_type_info_dtor_internal_method@type_info@@QAEXXZ 11a9f820     MSVCRTD:MSVCR80D.dll
 0005:00000824       __imp_??0exception@std@@QAE@ABQBD@Z 11a9f824     MSVCRTD:MSVCR80D.dll
 0005:00000828       __imp_??0exception@std@@QAE@XZ 11a9f828     MSVCRTD:MSVCR80D.dll
 0005:0000082c       __imp_??0exception@std@@QAE@ABV01@@Z 11a9f82c     MSVCRTD:MSVCR80D.dll
 0005:00000830       __imp___CxxThrowException@8 11a9f830     MSVCRTD:MSVCR80D.dll
 0005:00000834       __imp____CxxFrameHandler3  11a9f834     MSVCRTD:MSVCR80D.dll
 0005:00000838       __imp_??2@YAPAXI@Z         11a9f838     MSVCRTD:MSVCR80D.dll
 0005:0000083c       __imp_??3@YAXPAX@Z         11a9f83c     MSVCRTD:MSVCR80D.dll
 0005:00000840       __imp___CrtDbgReportW      11a9f840     MSVCRTD:MSVCR80D.dll
 0005:00000844       __imp___invalid_parameter  11a9f844     MSVCRTD:MSVCR80D.dll
 0005:00000848       __imp__floor               11a9f848     MSVCRTD:MSVCR80D.dll
 0005:0000084c       __imp__ldiv                11a9f84c     MSVCRTD:MSVCR80D.dll
 0005:00000850       __imp_??1exception@std@@UAE@XZ 11a9f850     MSVCRTD:MSVCR80D.dll
 0005:00000854       \177MSVCR80D_NULL_THUNK_DATA 11a9f854     MSVCRTD:MSVCR80D.dll
 0005:000008bc       __imp__CharLowerBuffA@8    11a9f8bc     user32:USER32.dll
 0005:000008c0       __imp__GetForegroundWindow@0 11a9f8c0     user32:USER32.dll
 0005:000008c4       \177USER32_NULL_THUNK_DATA 11a9f8c4     user32:USER32.dll
 0005:000008f0       __imp__mexPrintf           11a9f8f0     libmex:libmex.dll
 0005:000008f4       \177libmex_NULL_THUNK_DATA 11a9f8f4     libmex:libmex.dll
 0005:00000920       __imp__mxArrayToString     11a9f920     libmx:libmx.dll
 0005:00000924       __imp__mxCreateDoubleMatrix_730 11a9f924     libmx:libmx.dll
 0005:00000928       __imp__mxGetPr             11a9f928     libmx:libmx.dll
 0005:0000092c       \177libmx_NULL_THUNK_DATA  11a9f92c     libmx:libmx.dll
 0005:00000958       __imp__CoInitialize@4      11a9f958     ole32:ole32.dll
 0005:0000095c       __imp__CLSIDFromString@8   11a9f95c     ole32:ole32.dll
 0005:00000960       __imp__CoCreateInstance@20 11a9f960     ole32:ole32.dll
 0005:00000964       __imp__CoUninitialize@0    11a9f964     ole32:ole32.dll
 0005:00000968       \177ole32_NULL_THUNK_DATA  11a9f968     ole32:ole32.dll

 entry point at        0002:0000082a

